(lp1
(lp2
F0.14545328326338941
aF0.15939820822009812
aF0.14141795198138096
aF0.65523102729845906
aF0.9800895968143355
aa(lp3
F0.31011442546366796
aF0.15291229162102926
aF0.30476857981452748
aF0.22948078384641002
aF0.98656047784967649
aa(lp4
F0.25719007646194747
aF0.16821693863428003
aF0.25176907714647268
aF0.22629461720697869
aF0.99900447984071672
aa(lp5
F0.36363530708041664
aF0.18644049825327663
aF0.3685657522222478
aF0.13214931778409167
aF0.98755599800895966
aa(lp6
F0.44700383166531937
aF0.15331441048477459
aF0.44279291828779754
aF0.47605289304923865
aF0.98855151816824294
aa(lp7
F0.79894291099961934
aF0.19418697444546329
aF0.79844990848606301
aF0.43649754469275953
aF0.98904927824788447
aa(lp8
F0.40624019670532213
aF0.29739601095626017
aF0.40323687058455282
aF0.1952724344296683
aF0.99751119960179191
aa(lp9
F0.25964871864826028
aF0.1145338246051912
aF0.25333332644412559
aF0.20476114263409417
aF0.99751119960179191
aa(lp10
F0.10420420704936263
aF0.13201324408688372
aF0.099808025514604562
aF0.73080883829771603
aF0.9880537580886013
aa(lp11
F0.2237082967222106
aF0.51580069030588316
aF0.21465556309805542
aF0.33600932823003865
aF0.99800895968143355
aa(lp12
F0.18655399992782171
aF0.17742022037355062
aF0.17989756482054226
aF0.59732442172501177
aF0.99402687904430065
aa(lp13
F0.1525354603407427
aF0.28321746012008642
aF0.15124158555822836
aF0.10513541766052976
aF0.97610751617720259
aa(lp14
F0.50457380425521958
aF0.18902103889792168
aF0.50197488343676455
aF0.074076214399184437
aF0.98158287705326031
aa(lp15
F0.1702744011903338
aF0.81501398755723842
aF0.1617449189572164
aF0.31444263856152954
aF0.9776007964161274
aa(lp16
F0.1226908223367953
aF0.40698019763023097
aF0.11353276393008066
aF0.090122852101543374
aF0.99153807864609256
aa(lp17
F0.4404878625617254
aF0.30955194710758882
aF0.43504266184206758
aF0.1741896557917342
aF0.99402687904430065
aa(lp18
F0.22511404820870193
aF0.17503534641924337
aF0.22660710546270788
aF0.0016312782745798776
aF0.99900447984071672
aa(lp19
F0.034749323797484924
aF0.15007268160053563
aF0.030027217219849606
aF0.20717411381860978
aF0.99701343952215027
aa(lp20
F0.21033096348184757
aF0.15897322620239066
aF0.20424514857585885
aF0.083848809385758685
aF0.99303135888501737
aa(lp21
F0.38849124549797248
aF0.053833170031409881
aF0.38750796150531447
aF0.91479443384043857
aF0.99751119960179191
aa(lp22
F0.33766774379836417
aF0.16388159541054723
aF0.33442652135271217
aF0.41574742468946158
aF0.99153807864609256
aa(lp23
F0.22249321444116998
aF0.091649090144754267
aF0.22115659460192599
aF0.36117815765615352
aF0.99651567944250874
aa(lp24
F0.19526550369322429
aF0.17472201671521545
aF0.1896663365422219
aF0.90660519285383434
aF0.99850671976107519
aa(lp25
F0.27755601658967649
aF0.19232252271869602
aF0.27378310661754401
aF0.038914460945109433
aF0.99303135888501737
aa(lp26
F0.51617334171799933
aF0.58247571787660601
aF0.5100304594473245
aF0.15798392313287404
aF0.98257839721254359
aa(lp27
F0.34107917294068335
aF0.085532302994337894
aF0.34004340362250818
aF0.41029466231481632
aF1
aa(lp28
F0.37218564036621343
aF0.080823938665435427
aF0.37231838173606874
aF0.48615069487495238
aF0.99402687904430065
aa(lp29
F0.25418113303941325
aF0.23755588440964798
aF0.24613418362319869
aF0.11476809166323193
aF0.9840716774514684
aa(lp30
F0.31890842295712174
aF0.17037693526632919
aF0.314380718276632
aF0.24383083849761286
aF0.98855151816824294
aa(lp31
F0.092554047342647078
aF0.15440754117201658
aF0.090182807646654733
aF0.41946081377877498
aF0.97859631657541069
aa(lp32
F0.25349933628786614
aF0.08323947336908788
aF0.2575106788457604
aF0.066963454687335347
aF0.9880537580886013
aa(lp33
F0.43634910934787163
aF0.18294986059429766
aF0.43687509773651501
aF0.19722059690103111
aF0.99303135888501737
aa(lp34
F0.30246486937853018
aF0.69114023075241093
aF0.29511884408979366
aF0.16313056082932237
aF0.99402687904430065
aa(lp35
F0.2204323347062096
aF0.17897720118606886
aF0.21652720549397914
aF0.2489415039864798
aF0.99701343952215027
aa(lp36
F0.14280234739264458
aF0.11245940854411685
aF0.13705294272484453
aF0.11882409796663193
aF0.99153807864609256
aa(lp37
F0.33539772602598844
aF0.14586857889088581
aF0.3298102018548047
aF0.33365549118094651
aF0.99054255848680939
aa(lp38
F0.023392907367659248
aF0.19474210999544131
aF0.018747443246036818
aF0.024680458991979282
aF0.9880537580886013
aa(lp39
F0.37613255097337323
aF0.21837103068245989
aF0.37242385712537185
aF0.693532697257629
aF0.99552015928322546
aa(lp40
F0.17142271474068632
aF0.18121685376933444
aF0.16813605547475641
aF0.74484531896521688
aF0.99402687904430065
aa(lp41
F0.2955618281619718
aF0.3472319555964844
aF0.29074934680770748
aF0.33583188911467615
aF0.99751119960179191
aa(lp42
F0.65915088518169573
aF0.19303745859237742
aF0.66153687813293749
aF0.59552175995212087
aF0.99552015928322546
aa(lp43
F0.13027564077017015
aF0.80845014637289936
aF0.12194955061046718
aF0.48104603219488667
aF0.97710303633648576
aa(lp44
F0.30667192644654823
aF0.14637108038205576
aF0.3019290171332169
aF0.28842063009811525
aF0.9960179193628671
aa(lp45
F0.2115945632246308
aF0.78739734418876584
aF0.20330718116152668
aF0.27101190849747497
aF0.99800895968143355
aa(lp46
F0.22518420969484085
aF0.77750035931536909
aF0.21697995532909403
aF0.27866257939205041
aF0.99651567944250874
aa(lp47
F0.2353128295861813
aF0.31237280707274767
aF0.23283824879801868
aF0.028883209153377838
aF0.99054255848680939
aa(lp48
F0.10161017254330318
aF0.037180525943284796
aF0.08669651374303261
aF0.025736147290588447
aF0.99502239920358382
aa(lp49
F0.41302605173717727
aF0.17975959215294363
aF0.41074178563986979
aF0.58641593593727459
aF0.99800895968143355
aa(lp50
F0.39628103311279511
aF0.15065811126408371
aF0.3935677220598337
aF0.2441756901742767
aF0.99054255848680939
aa(lp51
F0.28516356137934434
aF0.15587073047780436
aF0.28133240941178406
aF0.67578259022548437
aF0.97610751617720259
aa.