(lp1
(lp2
(lp3
cnumpy.core.multiarray
scalar
p4
(cnumpy
dtype
p5
(S'S18'
I0
I1
tRp6
(I3
S'|'
NNNI18
I1
I0
tbS'SOMZWCG12A8C13C480'
tRp7
ag4
(g5
(S'S6'
I0
I1
tRp8
(I3
S'|'
NNNI6
I1
I0
tbS'Casual'
tRp9
ag4
(g5
(S'S16'
I0
I1
tRp10
(I3
S'|'
NNNI16
I1
I0
tbS"I Didn't Mean To"
tRp11
aa(lp12
F0.39962299712066179
aF0.27782738263084777
aF0.0087675706375124236
aF0.6215558488698234
aF0.28754244376797533
aaa(lp13
(lp14
g4
(g5
(S'S18'
I0
I1
tRp15
(I3
S'|'
NNNI18
I1
I0
tbS'SOCIWDW12A8C13D406'
tRp16
ag4
(g5
(S'S12'
I0
I1
tRp17
(I3
S'|'
NNNI12
I1
I0
tbS'The Box Tops'
tRp18
ag4
(g5
(S'S9'
I0
I1
tRp19
(I3
S'|'
NNNI9
I1
I0
tbS'Soul Deep'
tRp20
aa(lp21
F0.41503352986643677
aF0.14320436236104012
aF0.0052534431350276869
aF0.67740471869328489
aF0.13282178009831294
aaa(lp22
(lp23
g4
(g5
(S'S18'
I0
I1
tRp24
(I3
S'|'
NNNI18
I1
I0
tbS'SOXVLOJ12AB0189215'
tRp25
ag4
(g5
(S'S16'
I0
I1
tRp26
(I3
S'|'
NNNI16
I1
I0
tbS'Sonora Santanera'
tRp27
ag4
(g5
(S'S15'
I0
I1
tRp28
(I3
S'|'
NNNI15
I1
I0
tbS'Amor De Cabaret'
tRp29
aa(lp30
F0.34139979235376133
aF0.19910713922894197
aF0.010009938946471673
aF0.68375680580762244
aF0.19849551404225088
aaa(lp31
(lp32
g4
(g5
(S'S18'
I0
I1
tRp33
(I3
S'|'
NNNI18
I1
I0
tbS'SONHOTT12A8C13493C'
tRp34
ag4
(g5
(S'S8'
I0
I1
tRp35
(I3
S'|'
NNNI8
I1
I0
tbS'Adam Ant'
tRp36
ag4
(g5
(S'S15'
I0
I1
tRp37
(I3
S'|'
NNNI15
I1
I0
tbS'Something Girls'
tRp38
aa(lp39
F0.45154807329219021
aF0.30530754711413499
aF0
aF0.71163999340042894
aF0.28408965040467199
aaa(lp40
(lp41
g4
(g5
(S'S18'
I0
I1
tRp42
(I3
S'|'
NNNI18
I1
I0
tbS'SOFSOCN12A8C143F5D'
tRp43
ag4
(g5
(S'S3'
I0
I1
tRp44
(I3
S'|'
NNNI3
I1
I0
tbS'Gob'
tRp45
ag4
(g5
(S'S14'
I0
I1
tRp46
(I3
S'|'
NNNI14
I1
I0
tbS'Face the Ashes'
tRp47
aa(lp48
F0.39935075690216659
aF0.26011905772375671
aF0.0023427516683231578
aF0.8977478963867348
aF0.24890285963096362
aaa(lp49
(lp50
g4
(g5
(S'S18'
I0
I1
tRp51
(I3
S'|'
NNNI18
I1
I0
tbS'SOYMRWW12A6D4FAB14'
tRp52
ag4
(g5
(S'S21'
I0
I1
tRp53
(I3
S'|'
NNNI21
I1
I0
tbS'Jeff And Sheri Easter'
tRp54
ag4
(g5
(S'S43'
I0
I1
tRp55
(I3
S'|'
NNNI43
I1
I0
tbS'The Moon And I (Ordinary Day Album Version)'
tRp56
aa(lp57
F0.38319362706969978
aF0.37043650384489202
aF0.080363481470964074
aF0.69885332453390525
aF0.35502851228147908
aaa(lp58
(lp59
g4
(g5
(S'S18'
I0
I1
tRp60
(I3
S'|'
NNNI18
I1
I0
tbS'SOMJBYD12A6D4F8557'
tRp61
ag4
(g5
(S'S7'
I0
I1
tRp62
(I3
S'|'
NNNI7
I1
I0
tbS'Rated R'
tRp63
ag4
(g5
(S'S21'
I0
I1
tRp64
(I3
S'|'
NNNI21
I1
I0
tbS'Keepin It Real (Skit)'
tRp65
aa(lp66
F0.26039392554046503
aF0.080059536457364314
aF0.0034076387902882295
aF0.36974096683715552
aF0.088643976517949558
aaa(lp67
(lp68
g4
(g5
(S'S18'
I0
I1
tRp69
(I3
S'|'
NNNI18
I1
I0
tbS'SOHKNRJ12A6701D1F8'
tRp70
ag4
(g5
(S'S21'
I0
I1
tRp71
(I3
S'|'
NNNI21
I1
I0
tbS'Tweeterfriendly Music'
tRp72
ag4
(g5
(S'S12'
I0
I1
tRp73
(I3
S'|'
NNNI12
I1
I0
tbS'Drop of Rain'
tRp74
aa(lp75
F0.60193048524015857
aF0.22207342032215568
aF0.011323299730228597
aF0.60320079194852327
aF0.21514645725831402
aaa(lp76
(lp77
g4
(g5
(S'S18'
I0
I1
tRp78
(I3
S'|'
NNNI18
I1
I0
tbS'SOIAZJW12AB01853F1'
tRp79
ag4
(g5
(S'S16'
I0
I1
tRp80
(I3
S'|'
NNNI16
I1
I0
tbS'Planet P Project'
tRp81
ag4
(g5
(S'S10'
I0
I1
tRp82
(I3
S'|'
NNNI10
I1
I0
tbS'Pink World'
tRp83
aa(lp84
F0.33031303777420723
aF0.37445436402255272
aF0.18813005821382933
aF0.52672826266292683
aF0.36404244185824447
aaa(lp85
(lp86
g4
(g5
(S'S18'
I0
I1
tRp87
(I3
S'|'
NNNI18
I1
I0
tbS'SOUDSGM12AC9618304'
tRp88
ag4
(g5
(S'S3'
I0
I1
tRp89
(I3
S'|'
NNNI3
I1
I0
tbS'Clp'
tRp90
ag4
(g5
(S'S33'
I0
I1
tRp91
(I3
S'|'
NNNI33
I1
I0
tbS'Insatiable (Instrumental Version)'
tRp92
aa(lp93
F0.42020877479567248
aF0.36795634980539793
aF0.002981683941502201
aF0.80716878402903813
aF0.36930756979111362
aaa(lp94
(lp95
g4
(g5
(S'S18'
I0
I1
tRp96
(I3
S'|'
NNNI18
I1
I0
tbS'SOQHXMF12AB0182363'
tRp97
ag4
(g5
(S'S12'
I0
I1
tRp98
(I3
S'|'
NNNI12
I1
I0
tbS'JennyAnyKind'
tRp99
ag4
(g5
(S'S15'
I0
I1
tRp100
(I3
S'|'
NNNI15
I1
I0
tbS'Young Boy Blues'
tRp101
aa(lp102
F0.29451893283950487
aF0.27752977250114302
aF0.075429504472525916
aF0.67006269592476475
aF0.26477845212495749
aaa(lp103
(lp104
g4
(g5
(S'S18'
I0
I1
tRp105
(I3
S'|'
NNNI18
I1
I0
tbS'SOKEJEJ12A8C13E0D0'
tRp106
ag4
(g5
(S'S12'
I0
I1
tRp107
(I3
S'|'
NNNI12
I1
I0
tbS'Wayne Watson'
tRp108
ag4
(g5
(S'S24'
I0
I1
tRp109
(I3
S'|'
NNNI24
I1
I0
tbS'The Urgency (LP Version)'
tRp110
aa(lp111
F0.3494792672775886
aF0.32772818748272264
aF0.012672156751384353
aF0.77219105758125706
aF0.30386682300996498
aaa(lp112
(lp113
g4
(g5
(S'S18'
I0
I1
tRp114
(I3
S'|'
NNNI18
I1
I0
tbS'SOMUYGI12AB0188633'
tRp115
ag4
(g5
(S'S9'
I0
I1
tRp116
(I3
S'|'
NNNI9
I1
I0
tbS'Andy Andy'
tRp117
ag4
(g5
(S'S8'
I0
I1
tRp118
(I3
S'|'
NNNI8
I1
I0
tbS'La Culpa'
tRp119
aa(lp120
F0.37724061936346504
aF0.29191469251440932
aF0
aF0.80984985975911572
aF0.29254784830625968
aaa(lp121
(lp122
g4
(g5
(S'S18'
I0
I1
tRp123
(I3
S'|'
NNNI18
I1
I0
tbS'SORAMLE12AB017C8B0'
tRp124
ag4
(g5
(S'S9'
I0
I1
tRp125
(I3
S'|'
NNNI9
I1
I0
tbS'Bob Azzam'
tRp126
ag4
(g5
(S'S14'
I0
I1
tRp127
(I3
S'|'
NNNI14
I1
I0
tbS'Auguri Cha Cha'
tRp128
aa(lp129
F0.25044836907993029
aF0.22638889062952108
aF0.013488570211557575
aF0.76373535720178187
aF0.22928037522391595
aaa(lp130
(lp131
g4
(g5
(S'S18'
I0
I1
tRp132
(I3
S'|'
NNNI18
I1
I0
tbS'SOBONFF12A6D4F84D8'
tRp133
ag4
(g5
(S'S13'
I0
I1
tRp134
(I3
S'|'
NNNI13
I1
I0
tbS'Lionel Richie'
tRp135
ag4
(g5
(S'S23'
I0
I1
tRp136
(I3
S'|'
NNNI23
I1
I0
tbS'Tonight Will Be Alright'
tRp137
aa(lp138
F0.54980506846342247
aF0.44578372484075973
aF0.02172369728808746
aF0.73915195512291698
aF0.43597818323485488
aaa(lp139
(lp140
g4
(g5
(S'S18'
I0
I1
tRp141
(I3
S'|'
NNNI18
I1
I0
tbS'SOHUOAP12A8AE488E9'
tRp142
ag4
(g5
(S'S10'
I0
I1
tRp143
(I3
S'|'
NNNI10
I1
I0
tbS'Blue Rodeo'
tRp144
ag4
(g5
(S'S8'
I0
I1
tRp145
(I3
S'|'
NNNI8
I1
I0
tbS'Floating'
tRp146
aa(lp147
F0.44528958492587267
aF0.794692456683608
aF0
aF0.72966507177033479
aF0.797635371270773
aaa(lp148
(lp149
g4
(g5
(S'S18'
I0
I1
tRp150
(I3
S'|'
NNNI18
I1
I0
tbS'SOUQQEA12A8C134B1B'
tRp151
ag4
(g5
(S'S15'
I0
I1
tRp152
(I3
S'|'
NNNI15
I1
I0
tbS'Richard Souther'
tRp153
ag4
(g5
(S'S9'
I0
I1
tRp154
(I3
S'|'
NNNI9
I1
I0
tbS'High Tide'
tRp155
aa(lp156
F0.32885232752158683
aF0.29618056429827644
aF0.0079156609399403666
aF0.4189077709948853
aF0.28466638911911751
aaa(lp157
(lp158
g4
(g5
(S'S18'
I0
I1
tRp159
(I3
S'|'
NNNI18
I1
I0
tbS'SOILPQQ12AB017E82A'
tRp160
ag4
(g5
(S'S13'
I0
I1
tRp161
(I3
S'|'
NNNI13
I1
I0
tbS'Faiz Ali Faiz'
tRp162
ag4
(g5
(S'S20'
I0
I1
tRp163
(I3
S'|'
NNNI20
I1
I0
tbS'Sohna Nee Sohna Data'
tRp164
aa(lp165
F0.30486459841444558
aF1
aF0.042347011216811017
aF0.75210361326513775
aF1
aaa(lp166
(lp167
g4
(g5
(S'S18'
I0
I1
tRp168
(I3
S'|'
NNNI18
I1
I0
tbS'SOXLBJT12A8C140925'
tRp169
ag4
(g5
(S'S5'
I0
I1
tRp170
(I3
S'|'
NNNI5
I1
I0
tbS'Tesla'
tRp171
ag4
(g5
(S'S17'
I0
I1
tRp172
(I3
S'|'
NNNI17
I1
I0
tbS'Caught In A Dream'
tRp173
aa(lp174
F0.51043033005868077
aF0.4133432522784844
aF0.0051469544228311794
aF0.86598746081504696
aF0.41486992823231494
aaa(lp175
(lp176
g4
(g5
(S'S18'
I0
I1
tRp177
(I3
S'|'
NNNI18
I1
I0
tbS'SOZVMJI12AB01808AF'
tRp178
ag4
(g5
(S'S9'
I0
I1
tRp179
(I3
S'|'
NNNI9
I1
I0
tbS'lextrical'
tRp180
ag4
(g5
(S'S15'
I0
I1
tRp181
(I3
S'|'
NNNI15
I1
I0
tbS'Synthetic Dream'
tRp182
aa(lp183
F0
aF0.17673611637256759
aF0.0057503904586113869
aF0.80345652532585377
aF0.17001569798752564
aaa(lp184
(lp185
g4
(g5
(S'S18'
I0
I1
tRp186
(I3
S'|'
NNNI18
I1
I0
tbS'SOWTBJW12AC468AC6E'
tRp187
ag4
(g5
(S'S12'
I0
I1
tRp188
(I3
S'|'
NNNI12
I1
I0
tbS'Jimmy Wakely'
tRp189
ag4
(g5
(S'S26'
I0
I1
tRp190
(I3
S'|'
NNNI26
I1
I0
tbS'Broken-Down Merry-Go-Round'
tRp191
aa(lp192
F0.28981764053563214
aF0.15044643038552905
aF0.10034786312650859
aF0.4555766375185612
aF0.14864199039787335
aaa(lp193
(lp194
g4
(g5
(S'S18'
I0
I1
tRp195
(I3
S'|'
NNNI18
I1
I0
tbS'SOBEBDG12A58A76D60'
tRp196
ag4
(g5
(S'S12'
I0
I1
tRp197
(I3
S'|'
NNNI12
I1
I0
tbS'Alice Stuart'
tRp198
ag4
(g5
(S'S12'
I0
I1
tRp199
(I3
S'|'
NNNI12
I1
I0
tbS'Kassie Jones'
tRp200
aa(lp201
F0.32661229587552698
aF0.2813492195960956
aF0.0073122249041601582
aF0.7322224055436396
aF0.26600831878755005
aaa(lp202
(lp203
g4
(g5
(S'S18'
I0
I1
tRp204
(I3
S'|'
NNNI18
I1
I0
tbS'SOZCTXZ12AB0182364'
tRp205
ag4
(g5
(S'S5'
I0
I1
tRp206
(I3
S'|'
NNNI5
I1
I0
tbS'Elena'
tRp207
ag4
(g5
(S'S14'
I0
I1
tRp208
(I3
S'|'
NNNI14
I1
I0
tbS'Setanta matins'
tRp209
aa(lp210
F0.37602038518312048
aF0.37400793933363813
aF0
aF0.75136116152450083
aF0.35865318142061059
aaa(lp211
(lp212
g4
(g5
(S'S18'
I0
I1
tRp213
(I3
S'|'
NNNI18
I1
I0
tbS'SOBBUGU12A8C13E95D'
tRp214
ag4
(g5
(S'S25'
I0
I1
tRp215
(I3
S'|'
NNNI25
I1
I0
tbS'The Dillinger Escape Plan'
tRp216
ag4
(g5
(S'S31'
I0
I1
tRp217
(I3
S'|'
NNNI31
I1
I0
tbS'Setting Fire to Sleeping Giants'
tRp218
aa(lp219
F0.53868810564965375
aF0.25664683827072204
aF0.0021652704813289792
aF0.90752351097178685
aF0.26035551549364633
aaa(lp220
(lp221
g4
(g5
(S'S18'
I0
I1
tRp222
(I3
S'|'
NNNI18
I1
I0
tbS'SOBLGCN12AB0183212'
tRp223
ag4
(g5
(S'S12'
I0
I1
tRp224
(I3
S'|'
NNNI12
I1
I0
tbS'SUE THOMPSON'
tRp225
ag4
(g5
(S'S30'
I0
I1
tRp226
(I3
S'|'
NNNI30
I1
I0
tbS'James (Hold The Ladder Steady)'
tRp227
aa(lp228
F0.30443333175351894
aF0.099206351466910522
aF0
aF0.57474014189077705
aF0.090473498665098143
aaa(lp229
(lp230
g4
(g5
(S'S18'
I0
I1
tRp231
(I3
S'|'
NNNI18
I1
I0
tbS'SOPSWQW12A6D4F8781'
tRp232
ag4
(g5
(S'S14'
I0
I1
tRp233
(I3
S'|'
NNNI14
I1
I0
tbS'Five Bolt Main'
tRp234
ag4
(g5
(S'S21'
I0
I1
tRp235
(I3
S'|'
NNNI21
I1
I0
tbS'Made Like This (Live)'
tRp236
aa(lp237
F0.36150332461174856
aF0.28953373552191192
aF0
aF0.83971291866028697
aF0.299315934412204
aaa(lp238
(lp239
g4
(g5
(S'S18'
I0
I1
tRp240
(I3
S'|'
NNNI18
I1
I0
tbS'SOZQDIU12A58A7BCF6'
tRp241
ag4
(g5
(S'S3'
I0
I1
tRp242
(I3
S'|'
NNNI3
I1
I0
tbS'Clp'
tRp243
ag4
(g5
(S'S17'
I0
I1
tRp244
(I3
S'|'
NNNI17
I1
I0
tbS'Superconfidential'
tRp245
aa(lp246
F0.42020877479567248
aF0.50451388339007353
aF0
aF0.81587196832205899
aF0.51552420201896743
aaa(lp247
(lp248
g4
(g5
(S'S18'
I0
I1
tRp249
(I3
S'|'
NNNI18
I1
I0
tbS'SONYPOM12A8C13B2D7'
tRp250
ag4
(g5
(S'S10'
I0
I1
tRp251
(I3
S'|'
NNNI10
I1
I0
tbS'Tim Wilson'
tRp252
ag4
(g5
(S'S51'
I0
I1
tRp253
(I3
S'|'
NNNI51
I1
I0
tbS'I Think My Wife Is Running Around On Me (Taco Hell)'
tRp254
aa(lp255
F0.34784572422372378
aF0.21622024387662364
aF0.038442425102939083
aF0.89712918660287078
aF0.20453599269718928
aaa(lp256
(lp257
g4
(g5
(S'S18'
I0
I1
tRp258
(I3
S'|'
NNNI18
I1
I0
tbS'SOBZBAZ12A6D4F8742'
tRp259
ag4
(g5
(S'S11'
I0
I1
tRp260
(I3
S'|'
NNNI11
I1
I0
tbS'Willie Bobo'
tRp261
ag4
(g5
(S'S14'
I0
I1
tRp262
(I3
S'|'
NNNI14
I1
I0
tbS'Spanish Grease'
tRp263
aa(lp264
F0.37742845770384131
aF0.18159722740455905
aF0.0070992474797671448
aF0.68676786008909418
aF0.17860757704809083
aaa(lp265
(lp266
g4
(g5
(S'S18'
I0
I1
tRp267
(I3
S'|'
NNNI18
I1
I0
tbS'SOVYKGO12AB0187199'
tRp268
ag4
(g5
(S'S10'
I0
I1
tRp269
(I3
S'|'
NNNI10
I1
I0
tbS'Faye Adams'
tRp270
ag4
(g5
(S'S20'
I0
I1
tRp271
(I3
S'|'
NNNI20
I1
I0
tbS'Crazy Mixed Up World'
tRp272
aa(lp273
F0.29746285377941245
aF0.1590773899889748
aF0.019948885418145677
aF0.33884672496287743
aF0.15711164668451627
aaa(lp274
(lp275
g4
(g5
(S'S18'
I0
I1
tRp276
(I3
S'|'
NNNI18
I1
I0
tbS'SOGNCJP12A58A80271'
tRp277
ag4
(g5
(S'S13'
I0
I1
tRp278
(I3
S'|'
NNNI13
I1
I0
tbS'Terry Callier'
tRp279
ag4
(g5
(S'S28'
I0
I1
tRp280
(I3
S'|'
NNNI28
I1
I0
tbS'Do You Finally Need A Friend'
tRp281
aa(lp282
F0.4137147854565224
aF0.51259920226889322
aF0.0022362629561266507
aF0.59095033822801513
aF0.50567572006401418
aaa(lp283
(lp284
g4
(g5
(S'S18'
I0
I1
tRp285
(I3
S'|'
NNNI18
I1
I0
tbS'SOLLHMX12AB01846DC'
tRp286
ag4
(g5
(S'S11'
I0
I1
tRp287
(I3
S'|'
NNNI11
I1
I0
tbS'John Wesley'
tRp288
ag4
(g5
(S'S17'
I0
I1
tRp289
(I3
S'|'
NNNI17
I1
I0
tbS'The Emperor Falls'
tRp290
aa(lp291
F0.4501149092855275
aF0.78234126602092124
aF1
aF0.4508744431611944
aF0.78680528766275681
aaa(lp292
(lp293
g4
(g5
(S'S18'
I0
I1
tRp294
(I3
S'|'
NNNI18
I1
I0
tbS'SOYTPEP12AB0180E7B'
tRp295
ag4
(g5
(S'S15'
I0
I1
tRp296
(I3
S'|'
NNNI15
I1
I0
tbS'The Shangri-Las'
tRp297
ag4
(g5
(S'S15'
I0
I1
tRp298
(I3
S'|'
NNNI15
I1
I0
tbS'Twist and Shout'
tRp299
aa(lp300
F0.41574616861521196
aF0.17504961466390603
aF0
aF0.63289886157399755
aF0.16769728474468806
aaa(lp301
(lp302
g4
(g5
(S'S18'
I0
I1
tRp303
(I3
S'|'
NNNI18
I1
I0
tbS'SOGXHEG12AB018653E'
tRp304
ag4
(g5
(S'S16'
I0
I1
tRp305
(I3
S'|'
NNNI16
I1
I0
tbS'Billie Jo Spears'
tRp306
ag4
(g5
(S'S26'
I0
I1
tRp307
(I3
S'|'
NNNI26
I1
I0
tbS'It Makes No Difference Now'
tRp308
aa(lp309
F0.38233923723084984
aF0.11527779217755331
aF0
aF0.67163009404388707
aF0.1177234480572308
aaa(lp310
(lp311
g4
(g5
(S'S18'
I0
I1
tRp312
(I3
S'|'
NNNI18
I1
I0
tbS'SOOLYAZ12A6701F4A6'
tRp313
ag4
(g5
(S'S44'
I0
I1
tRp314
(I3
S'|'
NNNI44
I1
I0
tbS"Mike Jones (Featuring CJ_ Mello & Lil' Bran)"
tRp315
ag4
(g5
(S'S31'
I0
I1
tRp316
(I3
S'|'
NNNI31
I1
I0
tbS'Laws Patrolling (Album Version)'
tRp317
aa(lp318
F0.4237997527054872
aF0.19186509019316803
aF0
aF0.76324038937469052
aF0.18437114473086161
aaa(lp319
(lp320
g4
(g5
(S'S18'
I0
I1
tRp321
(I3
S'|'
NNNI18
I1
I0
tbS'SOGOSOV12AF72A285E'
tRp322
ag4
(g5
(S'S14'
I0
I1
tRp323
(I3
S'|'
NNNI14
I1
I0
tbS'Sierra Maestra'
tRp324
ag4
(g5
(S'S19'
I0
I1
tRp325
(I3
S'|'
NNNI19
I1
I0
tbS'\xc2\xbfD\xc3\xb3nde va Chichi?'
tRp326
aa(lp327
F0.39041384974325466
aF0.45669642540099137
aF0
aF0.69105758125721817
aF0.45704251442801647
aaa(lp328
(lp329
g4
(g5
(S'S18'
I0
I1
tRp330
(I3
S'|'
NNNI18
I1
I0
tbS'SOJXVAH12A8C139700'
tRp331
ag4
(g5
(S'S16'
I0
I1
tRp332
(I3
S'|'
NNNI16
I1
I0
tbS'Butthole Surfers'
tRp333
ag4
(g5
(S'S29'
I0
I1
tRp334
(I3
S'|'
NNNI29
I1
I0
tbS'Barking Dogs (From "Piouhgd")'
tRp335
aa(lp336
F0.4851371731196179
aF0.71820435571498986
aF0.016576742865256282
aF0.70957762745421527
aF0.68318520187764731
aaa(lp337
(lp338
g4
(g5
(S'S18'
I0
I1
tRp339
(I3
S'|'
NNNI18
I1
I0
tbS'SOVXMTN12A8C135A18'
tRp340
ag4
(g5
(S'S13'
I0
I1
tRp341
(I3
S'|'
NNNI13
I1
I0
tbS'Despina Vandi'
tRp342
ag4
(g5
(S'S18'
I0
I1
tRp343
(I3
S'|'
NNNI18
I1
I0
tbS'OUTE ENA EFHARISTO'
tRp344
aa(lp345
F0.40925716762899433
aF0.43764880743844176
aF0.0023782479057219935
aF0.71716713413628119
aF0.43246427848459035
aaa(lp346
(lp347
g4
(g5
(S'S18'
I0
I1
tRp348
(I3
S'|'
NNNI18
I1
I0
tbS'SORSECL12AB0182267'
tRp349
ag4
(g5
(S'S16'
I0
I1
tRp350
(I3
S'|'
NNNI16
I1
I0
tbS'Javier Navarrete'
tRp351
ag4
(g5
(S'S13'
I0
I1
tRp352
(I3
S'|'
NNNI13
I1
I0
tbS'Midnight Swim'
tRp353
aa(lp354
F0.38039169662890243
aF0.10674602962110415
aF0
aF0.3533657812242203
aF0.10132649904322485
aaa(lp355
(lp356
g4
(g5
(S'S18'
I0
I1
tRp357
(I3
S'|'
NNNI18
I1
I0
tbS'SOOGFBZ12AC3DF7FF2'
tRp358
ag4
(g5
(S'S11'
I0
I1
tRp359
(I3
S'|'
NNNI11
I1
I0
tbS'Jacob Young'
tRp360
ag4
(g5
(S'S15'
I0
I1
tRp361
(I3
S'|'
NNNI15
I1
I0
tbS'In A Subtle Way'
tRp362
aa(lp363
F0.29311955546812207
aF0.7285714345393105
aF0.0085545932131194085
aF0.27998680085794408
aF0.73133142614879854
aaa(lp364
(lp365
g4
(g5
(S'S18'
I0
I1
tRp366
(I3
S'|'
NNNI18
I1
I0
tbS'SOMSBGZ12AB018C4CB'
tRp367
ag4
(g5
(S'S17'
I0
I1
tRp368
(I3
S'|'
NNNI17
I1
I0
tbS"Scarlet's Remains"
tRp369
ag4
(g5
(S'S4'
I0
I1
tRp370
(I3
S'|'
NNNI4
I1
I0
tbS'Spin'
tRp371
aa(lp372
F0.3907998143788492
aF0.23948413509954208
aF0
aF0.77532585381950159
aF0.23804985925283689
aaa(lp373
(lp374
g4
(g5
(S'S18'
I0
I1
tRp375
(I3
S'|'
NNNI18
I1
I0
tbS'SONYRZV12AB018AF70'
tRp376
ag4
(g5
(S'S20'
I0
I1
tRp377
(I3
S'|'
NNNI20
I1
I0
tbS'The Suicide Machines'
tRp378
ag4
(g5
(S'S24'
I0
I1
tRp379
(I3
S'|'
NNNI24
I1
I0
tbS'Burning In The Aftermath'
tRp380
aa(lp381
F0.46477675634724064
aF0.04379961680013645
aF0
aF1
aF0.03712707730972397
aaa(lp382
(lp383
g4
(g5
(S'S18'
I0
I1
tRp384
(I3
S'|'
NNNI18
I1
I0
tbS'SONQBUB12A6D4F8ED0'
tRp385
ag4
(g5
(S'S18'
I0
I1
tRp386
(I3
S'|'
NNNI18
I1
I0
tbS'The Rolling Stones'
tRp387
ag4
(g5
(S'S29'
I0
I1
tRp388
(I3
S'|'
NNNI29
I1
I0
tbS'Angie (1993 Digital Remaster)'
tRp389
aa(lp390
F0.73141962245538328
aF0.37762897334588263
aF0.0060698565952009087
aF0.6561623494472858
aF0.37319769151735749
aaa(lp391
(lp392
g4
(g5
(S'S18'
I0
I1
tRp393
(I3
S'|'
NNNI18
I1
I0
tbS'SOHGKJW12AC468A8BD'
tRp394
ag4
(g5
(S'S14'
I0
I1
tRp395
(I3
S'|'
NNNI14
I1
I0
tbS'Roberto Torres'
tRp396
ag4
(g5
(S'S13'
I0
I1
tRp397
(I3
S'|'
NNNI13
I1
I0
tbS'Sabor Guajiro'
tRp398
aa(lp399
F0.34801071119168769
aF0.29250993176253365
aF0.011039329831037909
aF0.55890117142385742
aF0.28864626819496059
aaa(lp400
(lp401
g4
(g5
(S'S18'
I0
I1
tRp402
(I3
S'|'
NNNI18
I1
I0
tbS'SOINBCU12A6D4F94C0'
tRp403
ag4
(g5
(S'S21'
I0
I1
tRp404
(I3
S'|'
NNNI21
I1
I0
tbS'Loudon Wainwright III'
tRp405
ag4
(g5
(S'S16'
I0
I1
tRp406
(I3
S'|'
NNNI16
I1
I0
tbS'Human Cannonball'
tRp407
aa(lp408
F0.44015048284492381
aF0.22380952055431555
aF0.009158029248899616
aF0.43734532255403391
aF0.20751899227322901
aaa(lp409
(lp410
g4
(g5
(S'S18'
I0
I1
tRp411
(I3
S'|'
NNNI18
I1
I0
tbS'SOTWVQT12A58A79650'
tRp412
ag4
(g5
(S'S13'
I0
I1
tRp413
(I3
S'|'
NNNI13
I1
I0
tbS'R.L. Burnside'
tRp414
ag4
(g5
(S'S8'
I0
I1
tRp415
(I3
S'|'
NNNI8
I1
I0
tbS'Glory Be'
tRp416
aa(lp417
F0.46387257386046837
aF0.38958333784315313
aF0.0085190969757205724
aF0.79698069625474344
aF0.38020449397861855
aaa(lp418
(lp419
g4
(g5
(S'S18'
I0
I1
tRp420
(I3
S'|'
NNNI18
I1
I0
tbS'SOTSEJY12AB0180F56'
tRp421
ag4
(g5
(S'S18'
I0
I1
tRp422
(I3
S'|'
NNNI18
I1
I0
tbS'Stevie Ray Vaughan'
tRp423
ag4
(g5
(S'S9'
I0
I1
tRp424
(I3
S'|'
NNNI9
I1
I0
tbS'Crossfire'
tRp425
aa(lp426
F0.54104264872573571
aF0.33452381182958213
aF0.0064958114439869373
aF0.76146675466094693
aF0.33959788707379579
aaa(lp427
(lp428
g4
(g5
(S'S18'
I0
I1
tRp429
(I3
S'|'
NNNI18
I1
I0
tbS'SOTSETT12AB01863B8'
tRp430
ag4
(g5
(S'S12'
I0
I1
tRp431
(I3
S'|'
NNNI12
I1
I0
tbS'John Hammond'
tRp432
ag4
(g5
(S'S20'
I0
I1
tRp433
(I3
S'|'
NNNI20
I1
I0
tbS"I Can't Be Satisfied"
tRp434
aa(lp435
F0.45014310270607366
aF0.2329861208823874
aF0
aF0.64205576637518558
aF0.22773922243399014
aaa(lp436
(lp437
g4
(g5
(S'S18'
I0
I1
tRp438
(I3
S'|'
NNNI18
I1
I0
tbS'SOTUNMH12A6D4FA3E6'
tRp439
ag4
(g5
(S'S33'
I0
I1
tRp440
(I3
S'|'
NNNI33
I1
I0
tbS'Casiotone For The Painfully Alone'
tRp441
ag4
(g5
(S'S19'
I0
I1
tRp442
(I3
S'|'
NNNI19
I1
I0
tbS'Nashville Parthenon'
tRp443
aa(lp444
F0.39188861012161147
aF0.19578373433511717
aF0.026054238250745421
aF0.6325688830226035
aF0.19161093435491205
aaa(lp445
(lp446
g4
(g5
(S'S18'
I0
I1
tRp447
(I3
S'|'
NNNI18
I1
I0
tbS'SOEPPKB12AB018418B'
tRp448
ag4
(g5
(S'S5'
I0
I1
tRp449
(I3
S'|'
NNNI5
I1
I0
tbS'Ec8or'
tRp450
ag4
(g5
(S'S12'
I0
I1
tRp451
(I3
S'|'
NNNI12
I1
I0
tbS'Cocain Ducks'
tRp452
aa(lp453
F0.33260105596802636
aF0.27460317478401952
aF0.036987079369586826
aF0.69184128031677927
aF0.27716114690795485
aaa(lp454
(lp455
g4
(g5
(S'S18'
I0
I1
tRp456
(I3
S'|'
NNNI18
I1
I0
tbS'SOGKIWV12A6D4F86C4'
tRp457
ag4
(g5
(S'S18'
I0
I1
tRp458
(I3
S'|'
NNNI18
I1
I0
tbS'The New York Dolls'
tRp459
ag4
(g5
(S'S11'
I0
I1
tRp460
(I3
S'|'
NNNI11
I1
I0
tbS'Human Being'
tRp461
aa(lp462
F0.47647724775386607
aF0.51542658395030516
aF0.0024137441431208292
aF0.70174063685860411
aF0.50925646539376734
aaa(lp463
(lp464
g4
(g5
(S'S18'
I0
I1
tRp465
(I3
S'|'
NNNI18
I1
I0
tbS'SOPHYIS12AAF3B35A3'
tRp466
ag4
(g5
(S'S12'
I0
I1
tRp467
(I3
S'|'
NNNI12
I1
I0
tbS'Eliane Elias'
tRp468
ag4
(g5
(S'S18'
I0
I1
tRp469
(I3
S'|'
NNNI18
I1
I0
tbS'The More I See You'
tRp470
aa(lp471
F0.42538661420375423
aF0.33953373742078341
aF0.0025202328553173359
aF0.58806302590331616
aF0.32318947967473466
aaa(lp472
(lp473
g4
(g5
(S'S18'
I0
I1
tRp474
(I3
S'|'
NNNI18
I1
I0
tbS'SOFHBAR12A6701D0FE'
tRp475
ag4
(g5
(S'S9'
I0
I1
tRp476
(I3
S'|'
NNNI9
I1
I0
tbS'Lost Boyz'
tRp477
ag4
(g5
(S'S20'
I0
I1
tRp478
(I3
S'|'
NNNI20
I1
I0
tbS'Certain Things We Do'
tRp479
aa(lp480
F0.40980554990997903
aF0.37440476549905433
aF0.0077381797529461876
aF0.62790793598416095
aF0.36103652551209431
aaa(lp481
(lp482
g4
(g5
(S'S18'
I0
I1
tRp483
(I3
S'|'
NNNI18
I1
I0
tbS'SOCPRKM12AB018A2FD'
tRp484
ag4
(g5
(S'S9'
I0
I1
tRp485
(I3
S'|'
NNNI9
I1
I0
tbS'The Germs'
tRp486
ag4
(g5
(S'S7'
I0
I1
tRp487
(I3
S'|'
NNNI7
I1
I0
tbS'Forming'
tRp488
aa(lp489
F0.40200394639164139
aF0.25337301291168057
aF0
aF0.60881042732222401
aF0.26294702024696637
aaa(lp490
(lp491
g4
(g5
(S'S18'
I0
I1
tRp492
(I3
S'|'
NNNI18
I1
I0
tbS'SOFGHAM12AB0186412'
tRp493
ag4
(g5
(S'S13'
I0
I1
tRp494
(I3
S'|'
NNNI13
I1
I0
tbS'Yamandu Costa'
tRp495
ag4
(g5
(S'S6'
I0
I1
tRp496
(I3
S'|'
NNNI6
I1
I0
tbS'Mafu\xc3\xa1'
tRp497
aa(lp498
F0.38121060447332566
aF0.22296626969998476
aF0
aF0.49855634383765046
aF0.20731847053476285
aaa(lp499
(lp500
g4
(g5
(S'S18'
I0
I1
tRp501
(I3
S'|'
NNNI18
I1
I0
tbS'SODHVES12A6701CE6B'
tRp502
ag4
(g5
(S'S9'
I0
I1
tRp503
(I3
S'|'
NNNI9
I1
I0
tbS'Chris Rea'
tRp504
ag4
(g5
(S'S26'
I0
I1
tRp505
(I3
S'|'
NNNI26
I1
I0
tbS'Driving Home For Christmas'
tRp506
aa(lp507
F0.49773382347981376
aF0.32003969476931926
aF0.019487434331960814
aF0.73152120112192709
aF0.30933247268130037
aaa(lp508
(lp509
g4
(g5
(S'S18'
I0
I1
tRp510
(I3
S'|'
NNNI18
I1
I0
tbS'SOXIATP12AAF3B2184'
tRp511
ag4
(g5
(S'S19'
I0
I1
tRp512
(I3
S'|'
NNNI19
I1
I0
tbS'Perrey And Kingsley'
tRp513
ag4
(g5
(S'S15'
I0
I1
tRp514
(I3
S'|'
NNNI15
I1
I0
tbS'Spooks In Space'
tRp515
aa(lp516
F0.33641584697390081
aF0.094990078206541706
aF0.035141275024847367
aF0.73110872793268433
aF0.078799314024681363
aaa(lp517
(lp518
g4
(g5
(S'S18'
I0
I1
tRp519
(I3
S'|'
NNNI18
I1
I0
tbS'SOGNQWU12A8AE4868F'
tRp520
ag4
(g5
(S'S10'
I0
I1
tRp521
(I3
S'|'
NNNI10
I1
I0
tbS'Eurythmics'
tRp522
ag4
(g5
(S'S31'
I0
I1
tRp523
(I3
S'|'
NNNI31
I1
I0
tbS'Tous Les Gar\xc3\xa7ons Et Les Filles'
tRp524
aa(lp525
F0.52060565667756797
aF0.2553075452152635
aF0.091686781201192682
aF0.8099736017158885
aF0.25665254738997084
aaa(lp526
(lp527
g4
(g5
(S'S18'
I0
I1
tRp528
(I3
S'|'
NNNI18
I1
I0
tbS'SOYQOFI12A6D4F76E1'
tRp529
ag4
(g5
(S'S15'
I0
I1
tRp530
(I3
S'|'
NNNI15
I1
I0
tbS'Francis Dunnery'
tRp531
ag4
(g5
(S'S15'
I0
I1
tRp532
(I3
S'|'
NNNI15
I1
I0
tbS'Too Much Saturn'
tRp533
aa(lp534
F0.38125882039698428
aF0.43328373860757807
aF0
aF0.53357531760435561
aF0.43920371862789653
aaa(lp535
(lp536
g4
(g5
(S'S18'
I0
I1
tRp537
(I3
S'|'
NNNI18
I1
I0
tbS'SOVOLGY12A6D4F822B'
tRp538
ag4
(g5
(S'S9'
I0
I1
tRp539
(I3
S'|'
NNNI9
I1
I0
tbS'John Cale'
tRp540
ag4
(g5
(S'S38'
I0
I1
tRp541
(I3
S'|'
NNNI38
I1
I0
tbS'Movement 4 [from Kiss] (Album Version)'
tRp542
aa(lp543
F0.47881078502905106
aF0.29593255269207003
aF0
aF0.57144035637683543
aF0.30574981762070452
aaa(lp544
(lp545
g4
(g5
(S'S18'
I0
I1
tRp546
(I3
S'|'
NNNI18
I1
I0
tbS'SOMZCVH12AB0182B8E'
tRp547
ag4
(g5
(S'S13'
I0
I1
tRp548
(I3
S'|'
NNNI13
I1
I0
tbS'Suzanne Ciani'
tRp549
ag4
(g5
(S'S6'
I0
I1
tRp550
(I3
S'|'
NNNI6
I1
I0
tbS'Stream'
tRp551
aa(lp552
F0.3784557645560902
aF0.31706349852869742
aF0.011039329831037909
aF0.19443986140900835
aF0.32110596332552888
aaa(lp553
(lp554
g4
(g5
(S'S18'
I0
I1
tRp555
(I3
S'|'
NNNI18
I1
I0
tbS'SONXJBL12AAF3B2C0C'
tRp556
ag4
(g5
(S'S13'
I0
I1
tRp557
(I3
S'|'
NNNI13
I1
I0
tbS'Vickie Winans'
tRp558
ag4
(g5
(S'S12'
I0
I1
tRp559
(I3
S'|'
NNNI12
I1
I0
tbS'Make Me Over'
tRp560
aa(lp561
F0.3945116942692542
aF0.29682540206989905
aF0.011997728240806475
aF0.72512786668866513
aF0.28876849096888285
aaa(lp562
(lp563
g4
(g5
(S'S18'
I0
I1
tRp564
(I3
S'|'
NNNI18
I1
I0
tbS'SOYWZTU12AB0180E26'
tRp565
ag4
(g5
(S'S13'
I0
I1
tRp566
(I3
S'|'
NNNI13
I1
I0
tbS'The Berzerker'
tRp567
ag4
(g5
(S'S13'
I0
I1
tRp568
(I3
S'|'
NNNI13
I1
I0
tbS'Deform (live)'
tRp569
aa(lp570
F0.45485119949462399
aF0.17658730181335774
aF0.077062331392872344
aF0.8267612605180662
aF0.18572323416737649
aaa(lp571
(lp572
g4
(g5
(S'S18'
I0
I1
tRp573
(I3
S'|'
NNNI18
I1
I0
tbS'SOLGHDZ12AB0183B11'
tRp574
ag4
(g5
(S'S13'
I0
I1
tRp575
(I3
S'|'
NNNI13
I1
I0
tbS'Kings Of Leon'
tRp576
ag4
(g5
(S'S12'
I0
I1
tRp577
(I3
S'|'
NNNI12
I1
I0
tbS'Wicker Chair'
tRp578
aa(lp579
F0.78414656298125385
aF0.21894840952232408
aF0.011642765866818118
aF0.83975416597921126
aF0.21384975001623271
aaa(lp580
(lp581
g4
(g5
(S'S18'
I0
I1
tRp582
(I3
S'|'
NNNI18
I1
I0
tbS'SOTNTNJ12AAA15FBD6'
tRp583
ag4
(g5
(S'S11'
I0
I1
tRp584
(I3
S'|'
NNNI11
I1
I0
tbS'Edith Lefel'
tRp585
ag4
(g5
(S'S12'
I0
I1
tRp586
(I3
S'|'
NNNI12
I1
I0
tbS"An ti chans'"
tRp587
aa(lp588
F0.2982741554893189
aF0.38715278232715744
aF0.010613374982251881
aF0.89209701369410987
aF0.36970670353720347
aaa(lp589
(lp590
g4
(g5
(S'S18'
I0
I1
tRp591
(I3
S'|'
NNNI18
I1
I0
tbS'SOXZXXV12AAF3B3A67'
tRp592
ag4
(g5
(S'S5'
I0
I1
tRp593
(I3
S'|'
NNNI5
I1
I0
tbS'Taras'
tRp594
ag4
(g5
(S'S35'
I0
I1
tRp595
(I3
S'|'
NNNI35
I1
I0
tbS"I Will Love Again (JJ's Club Radio)"
tRp596
aa(lp597
F0.18819661984470035
aF0.24236111530445237
aF0
aF0.84070285431446945
aF0.24154084723299096
aaa(lp598
(lp599
g4
(g5
(S'S18'
I0
I1
tRp600
(I3
S'|'
NNNI18
I1
I0
tbS'SOPIKEG12A58291636'
tRp601
ag4
(g5
(S'S4'
I0
I1
tRp602
(I3
S'|'
NNNI4
I1
I0
tbS'NOFX'
tRp603
ag4
(g5
(S'S17'
I0
I1
tRp604
(I3
S'|'
NNNI17
I1
I0
tbS'Stickin In My Eye'
tRp605
aa(lp606
F0.55101736260375378
aF0.13650793506117725
aF0.0084126082635240657
aF0.76220920640158385
aF0.13691242356302302
aaa(lp607
(lp608
g4
(g5
(S'S18'
I0
I1
tRp609
(I3
S'|'
NNNI18
I1
I0
tbS'SOIRNBO12AC468D207'
tRp610
ag4
(g5
(S'S12'
I0
I1
tRp611
(I3
S'|'
NNNI12
I1
I0
tbS'Murskahumppa'
tRp612
ag4
(g5
(S'S10'
I0
I1
tRp613
(I3
S'|'
NNNI10
I1
I0
tbS'Ota kiinni'
tRp614
aa(lp615
F0.2664545756139623
aF0.40362103021450146
aF0
aF0.73329483583567068
aF0.39624623305591311
aaa(lp616
(lp617
g4
(g5
(S'S18'
I0
I1
tRp618
(I3
S'|'
NNNI18
I1
I0
tbS'SOSBDSF12AB0189007'
tRp619
ag4
(g5
(S'S11'
I0
I1
tRp620
(I3
S'|'
NNNI11
I1
I0
tbS'Soda Stereo'
tRp621
ag4
(g5
(S'S16'
I0
I1
tRp622
(I3
S'|'
NNNI16
I1
I0
tbS'Entre Can\xc3\xadbales'
tRp623
aa(lp624
F0.46406950731409446
aF0.33055555017541965
aF0.011429788442425103
aF0.68730407523510961
aF0.29731453648922723
aaa(lp625
(lp626
g4
(g5
(S'S18'
I0
I1
tRp627
(I3
S'|'
NNNI18
I1
I0
tbS'SOIJXXM12A8C1416D6'
tRp628
ag4
(g5
(S'S13'
I0
I1
tRp629
(I3
S'|'
NNNI13
I1
I0
tbS'Bruce Rowland'
tRp630
ag4
(g5
(S'S16'
I0
I1
tRp631
(I3
S'|'
NNNI16
I1
I0
tbS'Rosemary Recalls'
tRp632
aa(lp633
F0.29867971511373065
aF0.021676586561253472
aF0.011642765866818118
aF0
aF0.014179751505822791
aaa(lp634
(lp635
g4
(g5
(S'S18'
I0
I1
tRp636
(I3
S'|'
NNNI18
I1
I0
tbS'SOHMMMC12AB0181C42'
tRp637
ag4
(g5
(S'S9'
I0
I1
tRp638
(I3
S'|'
NNNI9
I1
I0
tbS'Xcultures'
tRp639
ag4
(g5
(S'S14'
I0
I1
tRp640
(I3
S'|'
NNNI14
I1
I0
tbS'Sudanese Dance'
tRp641
aa(lp642
F0.26470243270325089
aF0.3814980189643335
aF0.077275308817265367
aF0.82333773304735192
aF0.38295450639186907
aaa(lp643
(lp644
g4
(g5
(S'S18'
I0
I1
tRp645
(I3
S'|'
NNNI18
I1
I0
tbS'SOVJXVJ12A8C13517D'
tRp646
ag4
(g5
(S'S11'
I0
I1
tRp647
(I3
S'|'
NNNI11
I1
I0
tbS'White Heart'
tRp648
ag4
(g5
(S'S55'
I0
I1
tRp649
(I3
S'|'
NNNI55
I1
I0
tbS'Where The Thunder Roars (Tales Of Wonder Album Version)'
tRp650
aa(lp651
F0.33551367831205764
aF0.42956348855962201
aF0.6777296606559704
aF0.67101138426002316
aF0.42223194063028752
aaa(lp652
(lp653
g4
(g5
(S'S18'
I0
I1
tRp654
(I3
S'|'
NNNI18
I1
I0
tbS'SOFZCTA12AB0188D8F'
tRp655
ag4
(g5
(S'S17'
I0
I1
tRp656
(I3
S'|'
NNNI17
I1
I0
tbS'Heavy D / McGruff'
tRp657
ag4
(g5
(S'S17'
I0
I1
tRp658
(I3
S'|'
NNNI17
I1
I0
tbS'Wanna Be A Player'
tRp659
aa(lp660
F0.3615199708856629
aF0.1685516004467513
aF0.0058568791708078945
aF0.70553539019963685
aF0.17764125324176808
aaa(lp661
(lp662
g4
(g5
(S'S18'
I0
I1
tRp663
(I3
S'|'
NNNI18
I1
I0
tbS'SOLRYQR12A670215BF'
tRp664
ag4
(g5
(S'S9'
I0
I1
tRp665
(I3
S'|'
NNNI9
I1
I0
tbS'Van Halen'
tRp666
ag4
(g5
(S'S33'
I0
I1
tRp667
(I3
S'|'
NNNI33
I1
I0
tbS'Panama (Remastered Album Version)'
tRp668
aa(lp669
F0.57656306432974713
aF0.25952381847563233
aF0
aF0.88273387229830047
aF0.26403556682721135
aaa(lp670
(lp671
g4
(g5
(S'S18'
I0
I1
tRp672
(I3
S'|'
NNNI18
I1
I0
tbS'SOCHRXB12A8AE48069'
tRp673
ag4
(g5
(S'S15'
I0
I1
tRp674
(I3
S'|'
NNNI15
I1
I0
tbS'Black Eyed Peas'
tRp675
ag4
(g5
(S'S20'
I0
I1
tRp676
(I3
S'|'
NNNI20
I1
I0
tbS"Let's Get It Started"
tRp677
aa(lp678
F1
aF0.29811507761314443
aF0
aF0.88203266787658807
aF0.27748198168950061
aaa(lp679
(lp680
g4
(g5
(S'S18'
I0
I1
tRp681
(I3
S'|'
NNNI18
I1
I0
tbS'SOKBBXO12A6701DEA0'
tRp682
ag4
(g5
(S'S15'
I0
I1
tRp683
(I3
S'|'
NNNI15
I1
I0
tbS'Nine Inch Nails'
tRp684
ag4
(g5
(S'S5'
I0
I1
tRp685
(I3
S'|'
NNNI5
I1
I0
tbS'Metal'
tRp686
aa(lp687
F0.59492348588364785
aF0.67271825619490688
aF0.010151923896067016
aF0.54920805147665397
aF0.63314261487985879
aaa(lp688
(lp689
g4
(g5
(S'S18'
I0
I1
tRp690
(I3
S'|'
NNNI18
I1
I0
tbS'SOWHYUG12A58A77FAB'
tRp691
ag4
(g5
(S'S25'
I0
I1
tRp692
(I3
S'|'
NNNI25
I1
I0
tbS'Nick Cave & The Bad Seeds'
tRp693
ag4
(g5
(S'S37'
I0
I1
tRp694
(I3
S'|'
NNNI37
I1
I0
tbS'She Fell Away (2009 Digital Remaster)'
tRp695
aa(lp696
F0.47657587793361611
aF0.37341270008551375
aF0.13804486724407211
aF0.59870483418577791
aF0.37131469690661795
aaa(lp697
(lp698
g4
(g5
(S'S18'
I0
I1
tRp699
(I3
S'|'
NNNI18
I1
I0
tbS'SOYSTDI12A6D4F6500'
tRp700
ag4
(g5
(S'S12'
I0
I1
tRp701
(I3
S'|'
NNNI12
I1
I0
tbS'Nadine Renee'
tRp702
ag4
(g5
(S'S9'
I0
I1
tRp703
(I3
S'|'
NNNI9
I1
I0
tbS'Next Time'
tRp704
aa(lp705
F0.13842487795898867
aF0.33571429032583083
aF0.022966065597046715
aF0.80733377330473521
aF0.32478601465909396
aaa(lp706
(lp707
g4
(g5
(S'S18'
I0
I1
tRp708
(I3
S'|'
NNNI18
I1
I0
tbS'SOOOROX12A6D4F8400'
tRp709
ag4
(g5
(S'S11'
I0
I1
tRp710
(I3
S'|'
NNNI11
I1
I0
tbS'Lesley Gore'
tRp711
ag4
(g5
(S'S13'
I0
I1
tRp712
(I3
S'|'
NNNI13
I1
I0
tbS"It's My Party"
tRp713
aa(lp714
F0.38680240953153333
aF0.12127976419358023
aF0.00812863836433338
aF0.70842270252433581
aF0.11775591348155394
aaa(lp715
(lp716
g4
(g5
(S'S18'
I0
I1
tRp717
(I3
S'|'
NNNI18
I1
I0
tbS'SONSPZE12AB01819CE'
tRp718
ag4
(g5
(S'S9'
I0
I1
tRp719
(I3
S'|'
NNNI9
I1
I0
tbS'Smartbomb'
tRp720
ag4
(g5
(S'S13'
I0
I1
tRp721
(I3
S'|'
NNNI13
I1
I0
tbS'Complicate It'
tRp722
aa(lp723
F0.32058022885557497
aF0.30505953550792864
aF0.013701547635950589
aF0.97376670516416419
aF0.31092900766565956
aaa(lp724
(lp725
g4
(g5
(S'S18'
I0
I1
tRp726
(I3
S'|'
NNNI18
I1
I0
tbS'SOHWGFU12AB017B036'
tRp727
ag4
(g5
(S'S7'
I0
I1
tRp728
(I3
S'|'
NNNI7
I1
I0
tbS'Suburbs'
tRp729
ag4
(g5
(S'S12'
I0
I1
tRp730
(I3
S'|'
NNNI12
I1
I0
tbS'Monde De Fou'
tRp731
aa(lp732
F0.33366918822810399
aF0.21765873397907878
aF0.0037980974016754224
aF0.9010889292196006
aF0.21056692269791497
aaa(lp733
(lp734
g4
(g5
(S'S18'
I0
I1
tRp735
(I3
S'|'
NNNI18
I1
I0
tbS'SOQQVQJ12AB0185192'
tRp736
ag4
(g5
(S'S7'
I0
I1
tRp737
(I3
S'|'
NNNI7
I1
I0
tbS'Emperor'
tRp738
ag4
(g5
(S'S22'
I0
I1
tRp739
(I3
S'|'
NNNI22
I1
I0
tbS'Opus a Satana (Part 2)'
tRp740
aa(lp741
F0.45071306439136044
aF0
aF0
aF0.62757795743276679
aF0
aaa(lp742
(lp743
g4
(g5
(S'S18'
I0
I1
tRp744
(I3
S'|'
NNNI18
I1
I0
tbS'SODRHHD12AB0189F2A'
tRp745
ag4
(g5
(S'S12'
I0
I1
tRp746
(I3
S'|'
NNNI12
I1
I0
tbS'Julien Clerc'
tRp747
ag4
(g5
(S'S18'
I0
I1
tRp748
(I3
S'|'
NNNI18
I1
I0
tbS'This Melody (Live)'
tRp749
aa(lp750
F0.36223255098262863
aF0.37981151725567192
aF0.098502058781769125
aF0.67216630918990261
aF0.39011026785884789
aaa(lp751
(lp752
g4
(g5
(S'S18'
I0
I1
tRp753
(I3
S'|'
NNNI18
I1
I0
tbS'SOQGFVO12A8C13C8C3'
tRp754
ag4
(g5
(S'S13'
I0
I1
tRp755
(I3
S'|'
NNNI13
I1
I0
tbS'Glen Campbell'
tRp756
ag4
(g5
(S'S18'
I0
I1
tRp757
(I3
S'|'
NNNI18
I1
I0
tbS"I'm Gone This Time"
tRp758
aa(lp759
F0.47818289274305464
aF0.13318453016735252
aF0.0077381797529461876
aF0.61586371885827407
aF0.1282976277323474
aaa(lp760
(lp761
g4
(g5
(S'S18'
I0
I1
tRp762
(I3
S'|'
NNNI18
I1
I0
tbS'SORABMD12A8C136672'
tRp763
ag4
(g5
(S'S13'
I0
I1
tRp764
(I3
S'|'
NNNI13
I1
I0
tbS'T.G. Sheppard'
tRp765
ag4
(g5
(S'S22'
I0
I1
tRp766
(I3
S'|'
NNNI22
I1
I0
tbS'You Feel Good All Over'
tRp767
aa(lp768
F0.34125416117944202
aF0.23070436093688654
aF0.0031591651284963791
aF0.44072760270582406
aF0.21840445807567885
aaa(lp769
(lp770
g4
(g5
(S'S18'
I0
I1
tRp771
(I3
S'|'
NNNI18
I1
I0
tbS'SOTUBVH12AB018D2EC'
tRp772
ag4
(g5
(S'S12'
I0
I1
tRp773
(I3
S'|'
NNNI12
I1
I0
tbS'Slim Whitman'
tRp774
ag4
(g5
(S'S16'
I0
I1
tRp775
(I3
S'|'
NNNI16
I1
I0
tbS'Indian Love Call'
tRp776
aa(lp777
F0.38438508859607656
aF0.23412698186642286
aF0.0058568791708078945
aF0.58925919815212002
aF0.23627571930012181
aaa(lp778
(lp779
g4
(g5
(S'S18'
I0
I1
tRp780
(I3
S'|'
NNNI18
I1
I0
tbS'SOMQAGT12A8C132DB4'
tRp781
ag4
(g5
(S'S13'
I0
I1
tRp782
(I3
S'|'
NNNI13
I1
I0
tbS'Savage Garden'
tRp783
ag4
(g5
(S'S21'
I0
I1
tRp784
(I3
S'|'
NNNI21
I1
I0
tbS'You Can Still Be Free'
tRp785
aa(lp786
F0.534891985158508
aF0.086805562280725432
aF0
aF0.62081339712918659
aF0.095427340470634087
aaa(lp787
(lp788
g4
(g5
(S'S18'
I0
I1
tRp789
(I3
S'|'
NNNI18
I1
I0
tbS'SOKLLOH12A67020F2C'
tRp790
ag4
(g5
(S'S23'
I0
I1
tRp791
(I3
S'|'
NNNI23
I1
I0
tbS'Queens Of The Stone Age'
tRp792
ag4
(g5
(S'S12'
I0
I1
tRp793
(I3
S'|'
NNNI12
I1
I0
tbS'I Never Came'
tRp794
aa(lp795
F0.54915031305275064
aF0.40977183577845322
aF0.0040110748260684366
aF0.74661771984820979
aF0.40259799783818462
aaa(lp796
(lp797
g4
(g5
(S'S18'
I0
I1
tRp798
(I3
S'|'
NNNI18
I1
I0
tbS'SONRLQH12AB017C232'
tRp799
ag4
(g5
(S'S40'
I0
I1
tRp800
(I3
S'|'
NNNI40
I1
I0
tbS'Hank Penny & The Lincoln Penny Orchestra'
tRp801
ag4
(g5
(S'S5'
I0
I1
tRp802
(I3
S'|'
NNNI5
I1
I0
tbS'Dixie'
tRp803
aa(lp804
F0.34554566808795051
aF0.096081359655793841
aF0.035531733636234554
aF0.55997360171588839
aF0.094940359105787631
aaa(lp805
(lp806
g4
(g5
(S'S18'
I0
I1
tRp807
(I3
S'|'
NNNI18
I1
I0
tbS'SODDZAD12A6701DC4C'
tRp808
ag4
(g5
(S'S16'
I0
I1
tRp809
(I3
S'|'
NNNI16
I1
I0
tbS'Inspiral Carpets'
tRp810
ag4
(g5
(S'S16'
I0
I1
tRp811
(I3
S'|'
NNNI16
I1
I0
tbS'Commercial Reign'
tRp812
aa(lp813
F0.39619336787716086
aF0.40094246309229936
aF0
aF0.72455040422372541
aF0.3885633858763945
aaa(lp814
(lp815
g4
(g5
(S'S18'
I0
I1
tRp816
(I3
S'|'
NNNI18
I1
I0
tbS'SORENXV12A6701F61F'
tRp817
ag4
(g5
(S'S8'
I0
I1
tRp818
(I3
S'|'
NNNI8
I1
I0
tbS'Borialis'
tRp819
ag4
(g5
(S'S9'
I0
I1
tRp820
(I3
S'|'
NNNI9
I1
I0
tbS'Hourglass'
tRp821
aa(lp822
F0.41892585934859783
aF0.31651785780407132
aF0.0064603152065881011
aF0.84590001649892754
aF0.29008620525023204
aaa(lp823
(lp824
g4
(g5
(S'S18'
I0
I1
tRp825
(I3
S'|'
NNNI18
I1
I0
tbS'SOYMMDY12AB01825B2'
tRp826
ag4
(g5
(S'S16'
I0
I1
tRp827
(I3
S'|'
NNNI16
I1
I0
tbS'The Dirty Skirts'
tRp828
ag4
(g5
(S'S4'
I0
I1
tRp829
(I3
S'|'
NNNI4
I1
I0
tbS'Wake'
tRp830
aa(lp831
F0.40179475589339303
aF0.25471230596713912
aF0.0034076387902882295
aF0.88100148490348118
aF0.2382389226062479
aaa(lp832
(lp833
g4
(g5
(S'S18'
I0
I1
tRp834
(I3
S'|'
NNNI18
I1
I0
tbS'SOJWQIP12A6D4F710A'
tRp835
ag4
(g5
(S'S14'
I0
I1
tRp836
(I3
S'|'
NNNI14
I1
I0
tbS'Flor Silvestre'
tRp837
ag4
(g5
(S'S16'
I0
I1
tRp838
(I3
S'|'
NNNI16
I1
I0
tbS'Caricia Y Herida'
tRp839
aa(lp840
F0.31171713010918389
aF0.11810517385896527
aF0
aF0.74793763405378644
aF0.11908699587880088
aaa(lp841
(lp842
g4
(g5
(S'S18'
I0
I1
tRp843
(I3
S'|'
NNNI18
I1
I0
tbS'SOOVOKS12AB017EE57'
tRp844
ag4
(g5
(S'S5'
I0
I1
tRp845
(I3
S'|'
NNNI5
I1
I0
tbS'B\xc3\xa9zu'
tRp846
ag4
(g5
(S'S13'
I0
I1
tRp847
(I3
S'|'
NNNI13
I1
I0
tbS'Le tortillard'
tRp848
aa(lp849
F0.14810544348934845
aF0.40451389858104547
aF0.014092006247337783
aF0.70834020788648733
aF0.39409587612721858
aaa(lp850
(lp851
g4
(g5
(S'S18'
I0
I1
tRp852
(I3
S'|'
NNNI18
I1
I0
tbS'SORWHWY12A6702038E'
tRp853
ag4
(g5
(S'S6'
I0
I1
tRp854
(I3
S'|'
NNNI6
I1
I0
tbS'Redman'
tRp855
ag4
(g5
(S'S11'
I0
I1
tRp856
(I3
S'|'
NNNI11
I1
I0
tbS'WKYA (drop)'
tRp857
aa(lp858
F0.49065140873023971
aF0.097916675923665222
aF0
aF0.6587196832205906
aF0.10052823155104519
aaa(lp859
(lp860
g4
(g5
(S'S18'
I0
I1
tRp861
(I3
S'|'
NNNI18
I1
I0
tbS'SOGYYLE12A8C13E5EA'
tRp862
ag4
(g5
(S'S18'
I0
I1
tRp863
(I3
S'|'
NNNI18
I1
I0
tbS'Solistiyhtye Suomi'
tRp864
ag4
(g5
(S'S11'
I0
I1
tRp865
(I3
S'|'
NNNI11
I1
I0
tbS'Ter\xc3\xa4slintu'
tRp866
aa(lp867
F0.31593369256708176
aF0.11671628228000845
aF0.15763879028822944
aF0.55382775119617211
aF0.11843195819981131
aaa(lp868
(lp869
g4
(g5
(S'S18'
I0
I1
tRp870
(I3
S'|'
NNNI18
I1
I0
tbS'SOITUXQ12AB0183AE9'
tRp871
ag4
(g5
(S'S12'
I0
I1
tRp872
(I3
S'|'
NNNI12
I1
I0
tbS'Eddie Cantor'
tRp873
ag4
(g5
(S'S30'
I0
I1
tRp874
(I3
S'|'
NNNI30
I1
I0
tbS"Now's The Time To Fall In Love"
tRp875
aa(lp876
F0.32913442081589528
aF0.15758930136302138
aF0.0054664205594207012
aF0.51790133641313307
aF0.15733317546225037
aaa(lp877
(lp878
g4
(g5
(S'S18'
I0
I1
tRp879
(I3
S'|'
NNNI18
I1
I0
tbS'SOTWEZZ12A8C142B60'
tRp880
ag4
(g5
(S'S8'
I0
I1
tRp881
(I3
S'|'
NNNI8
I1
I0
tbS'Schizoid'
tRp882
ag4
(g5
(S'S49'
I0
I1
tRp883
(I3
S'|'
NNNI49
I1
I0
tbS'Grim Prospects (Gross Prospects - Bad Trip Remix)'
tRp884
aa(lp885
F0.34712958543790445
aF0.38506945445307961
aF0
aF0.99599901006434577
aF0.38994985046807495
aaa(lp886
(lp887
g4
(g5
(S'S18'
I0
I1
tRp888
(I3
S'|'
NNNI18
I1
I0
tbS'SOUVRGZ12A58A77F90'
tRp889
ag4
(g5
(S'S11'
I0
I1
tRp890
(I3
S'|'
NNNI11
I1
I0
tbS'Kai Winding'
tRp891
ag4
(g5
(S'S6'
I0
I1
tRp892
(I3
S'|'
NNNI6
I1
I0
tbS'Mangos'
tRp893
aa(lp894
F0.31448533964088665
aF0.28645834223429351
aF0.010329405083061195
aF0.48787328823626452
aF0.28963168930970867
aaa(lp895
(lp896
g4
(g5
(S'S18'
I0
I1
tRp897
(I3
S'|'
NNNI18
I1
I0
tbS'SOBLTSM12A6D4F9EEA'
tRp898
ag4
(g5
(S'S13'
I0
I1
tRp899
(I3
S'|'
NNNI13
I1
I0
tbS'Sonny Simmons'
tRp900
ag4
(g5
(S'S15'
I0
I1
tRp901
(I3
S'|'
NNNI15
I1
I0
tbS'A Distant Voice'
tRp902
aa(lp903
F0.31595647657328418
aF0.70376983717822528
aF0.0081641346017322161
aF0.54710443821151611
aF0.69203107514026962
aaa(lp904
g3
a(lp905
F0.39962299712066179
aF0.27782738263084777
aF0.0087675706375124236
aF0.40436322653356949
aF0.39659045878385479
aaa(lp906
g14
a(lp907
F0.41503352986643677
aF0.14320436236104012
aF0.0052534431350276869
aF0.44069661353512585
aF0.26555117951040408
aaa(lp908
g23
a(lp909
F0.34139979235376133
aF0.19910713922894197
aF0.010009938946471673
aF0.44482906670960121
aF0.32117295981496607
aaa(lp910
g32
a(lp911
F0.45154807329219021
aF0.30530754711413499
aF0
aF0.46296892609885687
aF0.39366614639353675
aaa(lp912
g41
a(lp913
F0.39935075690216659
aF0.26011905772375671
aF0.0023427516683231578
aF0.58404443728868127
aF0.36386500934065491
aaa(lp914
g50
a(lp915
F0.38319362706969978
aF0.37043650384489202
aF0.080363481470964074
aF0.4546503515268609
aF0.45374717960744987
aaa(lp916
g59
a(lp917
F0.26039392554046503
aF0.080059536457364314
aF0.0034076387902882295
aF0.24054097568829494
aF0.22813518475087544
aaa(lp918
g68
a(lp919
F0.60193048524015857
aF0.22207342032215568
aF0.011323299730228597
aF0.39242204690602694
aF0.33527532692292139
aaa(lp920
g77
a(lp921
F0.33031303777420723
aF0.37445436402255272
aF0.18813005821382933
aF0.34267160414318676
aF0.46138144646712986
aaa(lp922
g86
a(lp923
F0.42020877479567248
aF0.36795634980539793
aF0.002981683941502201
aF0.52511672838512313
aF0.46584069937648104
aaa(lp924
g95
a(lp925
F0.29451893283950487
aF0.27752977250114302
aF0.075429504472525916
aF0.43592014168410881
aF0.37731070010432421
aaa(lp926
g104
a(lp927
F0.3494792672775886
aF0.32772818748272264
aF0.012672156751384353
aF0.50236140181398592
aF0.41041624546108868
aaa(lp928
g113
a(lp929
F0.37724061936346504
aF0.29191469251440932
aF0
aF0.52686094563409014
aF0.40082974129216437
aaa(lp930
g122
a(lp931
F0.25044836907993029
aF0.22638889062952108
aF0.013488570211557575
aF0.49686040895185957
aF0.34724592205607629
aaa(lp932
g131
a(lp933
F0.54980506846342247
aF0.44578372484075973
aF0.02172369728808746
aF0.48086727848440936
aF0.52230677783798218
aaa(lp934
g140
a(lp935
F0.44528958492587267
aF0.794692456683608
aF0
aF0.47469543283421883
aF0.82860909157076656
aaa(lp936
g149
a(lp937
F0.32885232752158683
aF0.29618056429827644
aF0.0079156609399403666
aF0.27252723662319539
aF0.39415461007820268
aaa(lp938
g158
a(lp939
F0.30486459841444558
aF1
aF0.042347011216811017
aF0.48929318950249556
aF1
aaa(lp940
g167
a(lp941
F0.51043033005868077
aF0.4133432522784844
aF0.0051469544228311794
aF0.56338217141630431
aF0.50442933046509186
aaa(lp942
g176
a(lp943
F0
aF0.17673611637256759
aF0.0057503904586113869
aF0.52270165834809212
aF0.29705223488310029
aaa(lp944
g185
a(lp945
F0.28981764053563214
aF0.15044643038552905
aF0.10034786312650859
aF0.29638276176675787
aF0.27894996482091011
aaa(lp946
g194
a(lp947
F0.32661229587552698
aF0.2813492195960956
aF0.0073122249041601582
aF0.47635914774861804
aF0.37835232465043306
aaa(lp948
g203
a(lp949
F0.37602038518312048
aF0.37400793933363813
aF0
aF0.48881017549508932
aF0.45681706064551614
aaa(lp950
g212
a(lp951
F0.53868810564965375
aF0.25664683827072204
aF0.0021652704813289792
aF0.59040412171952983
aF0.37356473356893888
aaa(lp952
g221
a(lp953
F0.30443333175351894
aF0.099206351466910522
aF0
aF0.37390650995545532
aF0.22968468213468335
aaa(lp954
g230
a(lp955
F0.36150332461174856
aF0.28953373552191192
aF0
aF0.54628884237642883
aF0.406561911154602
aaa(lp956
g239
a(lp957
F0.42020877479567248
aF0.50451388339007353
aF0
aF0.53077872591638486
aF0.58967756544523786
aaa(lp958
g248
a(lp959
F0.34784572422372378
aF0.21622024387662364
aF0.038442425102939083
aF0.58364192561584294
aF0.32628888906860326
aaa(lp960
g257
a(lp961
F0.37742845770384131
aF0.18159722740455905
aF0.0070992474797671448
aF0.44678795685074868
aF0.30432904984108755
aaa(lp962
g266
a(lp963
F0.29746285377941245
aF0.1590773899889748
aF0.019948885418145677
aF0.22044222615789191
aF0.28612326429605422
aaa(lp964
g275
a(lp965
F0.4137147854565224
aF0.51259920226889322
aF0.0022362629561266507
aF0.38445231578382438
aF0.5813364819292699
aaa(lp966
g284
a(lp967
F0.4501149092855275
aF0.78234126602092124
aF1
aF0.29332367305318513
aF0.81943664933321481
aaa(lp968
g293
a(lp969
F0.41574616861521196
aF0.17504961466390603
aF0
aF0.41174260720227551
aF0.2950886755679199
aaa(lp970
g302
a(lp971
F0.38233923723084984
aF0.11527779217755331
aF0
aF0.43693983792196639
aF0.25276378252044024
aaa(lp972
g311
a(lp973
F0.4237997527054872
aF0.19186509019316803
aF0
aF0.49653839961358875
aF0.30921045182890827
aaa(lp974
g320
a(lp975
F0.39041384974325466
aF0.45669642540099137
aF0
aF0.44957870444909565
aF0.54014702433422568
aaa(lp976
g329
a(lp977
F0.4851371731196179
aF0.71820435571498986
aF0.016576742865256282
aF0.46162722052272842
aF0.7316765464647037
aaa(lp978
g338
a(lp979
F0.40925716762899433
aF0.43764880743844176
aF0.0023782479057219935
aF0.46656469704288095
aF0.51933070770624246
aaa(lp980
g347
a(lp981
F0.38039169662890243
aF0.10674602962110415
aF0
aF0.22988783341383559
aF0.23887653352526828
aaa(lp982
g356
a(lp983
F0.29311955546812207
aF0.7285714345393105
aF0.0085545932131194085
aF0.18214994901518802
aF0.77245355955779482
aaa(lp984
g365
a(lp985
F0.3907998143788492
aF0.23948413509954208
aF0
aF0.50440079428970097
aF0.35467315795006993
aaa(lp986
g374
a(lp987
F0.46477675634724064
aF0.04379961680013645
aF0
aF0.65056619975312624
aF0.18450340873250146
aaa(lp988
g383
a(lp989
F0.73141962245538328
aF0.37762897334588263
aF0.0060698565952009087
aF0.42687704610100358
aF0.4691354031038471
aaa(lp990
g392
a(lp991
F0.34801071119168769
aF0.29250993176253365
aF0.011039329831037909
aF0.36360221113078944
aF0.39752533298828169
aaa(lp992
g401
a(lp993
F0.44015048284492381
aF0.22380952055431555
aF0.009158029248899616
aF0.28452208447378302
aF0.32881531382174312
aaa(lp994
g410
a(lp995
F0.46387257386046837
aF0.38958333784315313
aF0.0085190969757205724
aF0.51848870283904902
aF0.47506975164371262
aaa(lp996
g419
a(lp997
F0.54104264872573571
aF0.33452381182958213
aF0.0064958114439869373
aF0.49538453281811839
aF0.44067834989850635
aaa(lp998
g428
a(lp999
F0.45014310270607366
aF0.2329861208823874
aF0
aF0.41769977996028551
aF0.34594065651460132
aaa(lp1000
g437
a(lp1001
F0.39188861012161147
aF0.19578373433511717
aF0.026054238250745421
aF0.41152793431009499
aF0.3153421267579436
aaa(lp1002
g446
a(lp1003
F0.33260105596802636
aF0.27460317478401952
aF0.036987079369586826
aF0.45008855256802438
aF0.38779811245986756
aaa(lp1004
g455
a(lp1005
F0.47647724775386607
aF0.51542658395030516
aF0.0024137441431208292
aF0.45652873933344063
aF0.58436916209068934
aaa(lp1006
g464
a(lp1007
F0.42538661420375423
aF0.33953373742078341
aF0.0025202328553173359
aF0.38257392797724465
aF0.42678139632681783
aaa(lp1008
g473
a(lp1009
F0.40980554990997903
aF0.37440476549905433
aF0.0077381797529461876
aF0.40849567970804485
aF0.4588356125609569
aaa(lp1010
g482
a(lp1011
F0.40200394639164139
aF0.25337301291168057
aF0
aF0.39607148607309611
aF0.37575958529109688
aaa(lp1012
g491
a(lp1013
F0.38121060447332566
aF0.22296626969998476
aF0
aF0.32434390597327317
aF0.32864548373270364
aaa(lp1014
g500
a(lp1015
F0.49773382347981376
aF0.32003969476931926
aF0.019487434331960814
aF0.47590296785273439
aF0.41504532845947939
aaa(lp1016
g509
a(lp1017
F0.33641584697390081
aF0.094990078206541706
aF0.035141275024847367
aF0.47563462673750867
aF0.21979733609374622
aaa(lp1018
g518
a(lp1019
F0.52060565667756797
aF0.2553075452152635
aF0.091686781201192682
aF0.52694144796865783
aF0.37042853792467634
aaa(lp1020
g527
a(lp1021
F0.38125882039698428
aF0.43328373860757807
aF0
aF0.34712606665593299
aF0.52503861612738878
aaa(lp1022
g536
a(lp1023
F0.47881078502905106
aF0.29593255269207003
aF0
aF0.37175978103364993
aF0.41201103086864049
aaa(lp1024
g545
a(lp1025
F0.3784557645560902
aF0.31706349852869742
aF0.011039329831037909
aF0.12649600171738309
aF0.42501678083022659
aaa(lp1026
g554
a(lp1027
F0.3945116942692542
aF0.29682540206989905
aF0.011997728240806475
aF0.47174368056673643
aF0.39762884847112484
aaa(lp1028
g563
a(lp1029
F0.45485119949462399
aF0.17658730181335774
aF0.077062331392872344
aF0.53786293135834262
aF0.31035559185786032
aaa(lp1030
g572
a(lp1031
F0.78414656298125385
aF0.21894840952232408
aF0.011642765866818118
aF0.54631567648795143
aF0.33417709234713266
aaa(lp1032
g581
a(lp1033
F0.2982741554893189
aF0.38715278232715744
aF0.010613374982251881
aF0.58036816401008962
aF0.4661787421251406
aaa(lp1034
g590
a(lp1035
F0.18819661984470035
aF0.24236111530445237
aF0
aF0.54693286105297045
aF0.35762981892877649
aaa(lp1036
g599
a(lp1037
F0.55101736260375378
aF0.13650793506117725
aF0.0084126082635240657
aF0.49586754682552459
aF0.26901571332680968
aaa(lp1038
g608
a(lp1039
F0.2664545756139623
aF0.40362103021450146
aF0
aF0.47705683464820481
aF0.48865615876687185
aaa(lp1040
g617
a(lp1041
F0.46406950731409446
aF0.33055555017541965
aF0.011429788442425103
aF0.44713680030054198
aF0.40486684512304594
aaa(lp1042
g626
a(lp1043
F0.29867971511373065
aF0.021676586561253472
aF0.011642765866818118
aF0
aF0.16506837682870615
aaa(lp1044
g635
a(lp1045
F0.26470243270325089
aF0.3814980189643335
aF0.077275308817265367
aF0.53563570010196959
aF0.47739885000768278
aaa(lp1046
g644
a(lp1047
F0.33551367831205764
aF0.42956348855962201
aF0.6777296606559704
aF0.43653732624912794
aF0.51066452087697023
aaa(lp1048
g653
a(lp1049
F0.3615199708856629
aF0.1685516004467513
aF0.0058568791708078945
aF0.45899747759351683
aF0.30351063055485911
aaa(lp1050
g662
a(lp1051
F0.57656306432974713
aF0.25952381847563233
aF0
aF0.57427682069446673
aF0.37668152006016836
aaa(lp1052
g671
a(lp1053
F1
aF0.29811507761314443
aF0
aF0.57382064079858319
aF0.38806984060233068
aaa(lp1054
g680
a(lp1055
F0.59492348588364785
aF0.67271825619490688
aF0.010151923896067016
aF0.35729619492298603
aF0.68929342595812482
aaa(lp1056
g689
a(lp1057
F0.47657587793361611
aF0.37341270008551375
aF0.13804486724407211
aF0.38949712875006709
aF0.46754061769629535
aaa(lp1058
g698
a(lp1059
F0.13842487795898867
aF0.33571429032583083
aF0.022966065597046715
aF0.52522406483121342
aF0.42813356732145602
aaa(lp1060
g707
a(lp1061
F0.38680240953153333
aF0.12127976419358023
aF0.00812863836433338
aF0.46087586540009656
aF0.25279127882057045
aaa(lp1062
g716
a(lp1063
F0.32058022885557497
aF0.30505953550792864
aF0.013701547635950589
aF0.63349970482477325
aF0.41639749945411758
aaa(lp1064
g725
a(lp1065
F0.33366918822810399
aF0.21765873397907878
aF0.0037980974016754224
aF0.58621800032200932
aF0.33139673117514334
aaa(lp1066
g734
a(lp1067
F0.45071306439136044
aF0
aF0
aF0.40828100681586427
aF0.1530589633894851
aaa(lp1068
g743
a(lp1069
F0.36223255098262863
aF0.37981151725567192
aF0.098502058781769125
aF0.4372886813717598
aF0.48345935804226348
aaa(lp1070
g752
a(lp1071
F0.47818289274305464
aF0.13318453016735252
aF0.0077381797529461876
aF0.40066011914345512
aF0.2617194892157893
aaa(lp1072
g761
a(lp1073
F0.34125416117944202
aF0.23070436093688654
aF0.0031591651284963791
aF0.28672248161863356
aF0.33803466151245826
aaa(lp1074
g770
a(lp1075
F0.38438508859607656
aF0.23412698186642286
aF0.0058568791708078945
aF0.38335211721139911
aF0.35317056601942531
aaa(lp1076
g779
a(lp1077
F0.534891985158508
aF0.086805562280725432
aF0
aF0.40388021252616324
aF0.23388029404866845
aaa(lp1078
g788
a(lp1079
F0.54915031305275064
aF0.40977183577845322
aF0.0040110748260684366
aF0.48572425266999408
aF0.49403572901587506
aaa(lp1080
g797
a(lp1081
F0.34554566808795051
aF0.096081359655793841
aF0.035531733636234554
aF0.36429989803037621
aF0.2334678495467154
aaa(lp1082
g806
a(lp1083
F0.39619336787716086
aF0.40094246309229936
aF0
aF0.47136800300542048
aF0.48214924021253025
aaa(lp1084
g815
a(lp1085
F0.41892585934859783
aF0.31651785780407132
aF0.0064603152065881011
aF0.55031395910481407
aF0.39874487477052722
aaa(lp1086
g824
a(lp1087
F0.40179475589339303
aF0.25471230596713912
aF0.0034076387902882295
aF0.57314978801051897
aF0.35483328346259291
aaa(lp1088
g833
a(lp1089
F0.31171713010918389
aF0.11810517385896527
aF0
aF0.48658294423871623
aF0.25391862712590879
aaa(lp1090
g842
a(lp1091
F0.14810544348934845
aF0.40451389858104547
aF0.014092006247337783
aF0.46082219717705142
aF0.48683493324060073
aaa(lp1092
g851
a(lp1093
F0.49065140873023971
aF0.097916675923665222
aF0
aF0.42854076101540278
aF0.23820044802794915
aaa(lp1094
g860
a(lp1095
F0.31593369256708176
aF0.11671628228000845
aF0.15763879028822944
aF0.36030161541351363
aF0.25336384883504642
aaa(lp1096
g869
a(lp1097
F0.32913442081589528
aF0.15758930136302138
aF0.0054664205594207012
aF0.33692910427735734
aF0.28631088610870742
aaa(lp1098
g878
a(lp1099
F0.34712958543790445
aF0.38506945445307961
aF0
aF0.64796329093543714
aF0.48332349397103186
aaa(lp1100
g887
a(lp1101
F0.31448533964088665
aF0.28645834223429351
aF0.010329405083061195
aF0.31739387108892819
aF0.39835992656870439
aaa(lp1102
g896
a(lp1103
F0.31595647657328418
aF0.70376983717822528
aF0.0081641346017322161
aF0.35592765523533509
aF0.73916847953547427
aaa(lp1104
(lp1105
g4
(g5
(S'S18'
I0
I1
tRp1106
(I3
S'|'
NNNI18
I1
I0
tbS'SOMZWCG12A8C13C480'
tRp1107
ag4
(g5
(S'S6'
I0
I1
tRp1108
(I3
S'|'
NNNI6
I1
I0
tbS'Casual'
tRp1109
ag4
(g5
(S'S16'
I0
I1
tRp1110
(I3
S'|'
NNNI16
I1
I0
tbS"I Didn't Mean To"
tRp1111
aa(lp1112
F0.39962299712066179
aF0.27782738263084777
aF0.0087675706375124236
aF0.73165888477432506
aF0.024373043921295884
aaa(lp1113
(lp1114
g4
(g5
(S'S18'
I0
I1
tRp1115
(I3
S'|'
NNNI18
I1
I0
tbS'SOCIWDW12A8C13D406'
tRp1116
ag4
(g5
(S'S12'
I0
I1
tRp1117
(I3
S'|'
NNNI12
I1
I0
tbS'The Box Tops'
tRp1118
ag4
(g5
(S'S9'
I0
I1
tRp1119
(I3
S'|'
NNNI9
I1
I0
tbS'Soul Deep'
tRp1120
aa(lp1121
F0.41503352986643677
aF0.14320436236104012
aF0.0052534431350276869
aF0.86582944238716253
aF0.026563043355195586
aaa(lp1122
(lp1123
g4
(g5
(S'S18'
I0
I1
tRp1124
(I3
S'|'
NNNI18
I1
I0
tbS'SOXVLOJ12AB0189215'
tRp1125
ag4
(g5
(S'S16'
I0
I1
tRp1126
(I3
S'|'
NNNI16
I1
I0
tbS'Sonora Santanera'
tRp1127
ag4
(g5
(S'S15'
I0
I1
tRp1128
(I3
S'|'
NNNI15
I1
I0
tbS'Amor De Cabaret'
tRp1129
aa(lp1130
F0.34139979235376133
aF0.19910713922894197
aF0.010009938946471673
aF0.9194976654322975
aF0.026812127485786836
aaa(lp1131
(lp1132
g4
(g5
(S'S18'
I0
I1
tRp1133
(I3
S'|'
NNNI18
I1
I0
tbS'SONHOTT12A8C13493C'
tRp1134
ag4
(g5
(S'S8'
I0
I1
tRp1135
(I3
S'|'
NNNI8
I1
I0
tbS'Adam Ant'
tRp1136
ag4
(g5
(S'S15'
I0
I1
tRp1137
(I3
S'|'
NNNI15
I1
I0
tbS'Something Girls'
tRp1138
aa(lp1139
F0.45154807329219021
aF0.30530754711413499
aF0
aF0.70482477325175763
aF0.027905509773317266
aaa(lp1140
(lp1141
g4
(g5
(S'S18'
I0
I1
tRp1142
(I3
S'|'
NNNI18
I1
I0
tbS'SOFSOCN12A8C143F5D'
tRp1143
ag4
(g5
(S'S3'
I0
I1
tRp1144
(I3
S'|'
NNNI3
I1
I0
tbS'Gob'
tRp1145
ag4
(g5
(S'S14'
I0
I1
tRp1146
(I3
S'|'
NNNI14
I1
I0
tbS'Face the Ashes'
tRp1147
aa(lp1148
F0.39935075690216659
aF0.26011905772375671
aF0.0023427516683231578
aF0.7584929962968926
aF0.035203351313757042
aaa(lp1149
(lp1150
g4
(g5
(S'S18'
I0
I1
tRp1151
(I3
S'|'
NNNI18
I1
I0
tbS'SOYMRWW12A6D4FAB14'
tRp1152
ag4
(g5
(S'S21'
I0
I1
tRp1153
(I3
S'|'
NNNI21
I1
I0
tbS'Jeff And Sheri Easter'
tRp1154
ag4
(g5
(S'S43'
I0
I1
tRp1155
(I3
S'|'
NNNI43
I1
I0
tbS'The Moon And I (Ordinary Day Album Version)'
tRp1156
aa(lp1157
F0.38319362706969978
aF0.37043650384489202
aF0.080363481470964074
aF0.8389953308645951
aF0.027404106653295915
aaa(lp1158
(lp1159
g4
(g5
(S'S18'
I0
I1
tRp1160
(I3
S'|'
NNNI18
I1
I0
tbS'SOMJBYD12A6D4F8557'
tRp1161
ag4
(g5
(S'S7'
I0
I1
tRp1162
(I3
S'|'
NNNI7
I1
I0
tbS'Rated R'
tRp1163
ag4
(g5
(S'S21'
I0
I1
tRp1164
(I3
S'|'
NNNI21
I1
I0
tbS'Keepin It Real (Skit)'
tRp1165
aa(lp1166
F0.26039392554046503
aF0.080059536457364314
aF0.0034076387902882295
aF0.73165888477432506
aF0.014498637315714134
aaa(lp1167
(lp1168
g4
(g5
(S'S18'
I0
I1
tRp1169
(I3
S'|'
NNNI18
I1
I0
tbS'SOHKNRJ12A6701D1F8'
tRp1170
ag4
(g5
(S'S21'
I0
I1
tRp1171
(I3
S'|'
NNNI21
I1
I0
tbS'Tweeterfriendly Music'
tRp1172
ag4
(g5
(S'S12'
I0
I1
tRp1173
(I3
S'|'
NNNI12
I1
I0
tbS'Drop of Rain'
tRp1174
aa(lp1175
F0.60193048524015857
aF0.22207342032215568
aF0.011323299730228597
aF0.81216121934202756
aF0.023653287829652331
aaa(lp1176
(lp1177
g4
(g5
(S'S18'
I0
I1
tRp1178
(I3
S'|'
NNNI18
I1
I0
tbS'SOIAZJW12AB01853F1'
tRp1179
ag4
(g5
(S'S16'
I0
I1
tRp1180
(I3
S'|'
NNNI16
I1
I0
tbS'Planet P Project'
tRp1181
ag4
(g5
(S'S10'
I0
I1
tRp1182
(I3
S'|'
NNNI10
I1
I0
tbS'Pink World'
tRp1183
aa(lp1184
F0.33031303777420723
aF0.37445436402255272
aF0.18813005821382933
aF0.81216121934202756
aF0.020654573686040772
aaa(lp1185
(lp1186
g4
(g5
(S'S18'
I0
I1
tRp1187
(I3
S'|'
NNNI18
I1
I0
tbS'SOUDSGM12AC9618304'
tRp1188
ag4
(g5
(S'S3'
I0
I1
tRp1189
(I3
S'|'
NNNI3
I1
I0
tbS'Clp'
tRp1190
ag4
(g5
(S'S33'
I0
I1
tRp1191
(I3
S'|'
NNNI33
I1
I0
tbS'Insatiable (Instrumental Version)'
tRp1192
aa(lp1193
F0.42020877479567248
aF0.36795634980539793
aF0.002981683941502201
aF0.89266355390973007
aF0.031651476308702575
aaa(lp1194
(lp1195
g4
(g5
(S'S18'
I0
I1
tRp1196
(I3
S'|'
NNNI18
I1
I0
tbS'SOQHXMF12AB0182363'
tRp1197
ag4
(g5
(S'S12'
I0
I1
tRp1198
(I3
S'|'
NNNI12
I1
I0
tbS'JennyAnyKind'
tRp1199
ag4
(g5
(S'S15'
I0
I1
tRp1200
(I3
S'|'
NNNI15
I1
I0
tbS'Young Boy Blues'
tRp1201
aa(lp1202
F0.29451893283950487
aF0.27752977250114302
aF0.075429504472525916
aF0.8389953308645951
aF0.026275140918538165
aaa(lp1203
(lp1204
g4
(g5
(S'S18'
I0
I1
tRp1205
(I3
S'|'
NNNI18
I1
I0
tbS'SOKEJEJ12A8C13E0D0'
tRp1206
ag4
(g5
(S'S12'
I0
I1
tRp1207
(I3
S'|'
NNNI12
I1
I0
tbS'Wayne Watson'
tRp1208
ag4
(g5
(S'S24'
I0
I1
tRp1209
(I3
S'|'
NNNI24
I1
I0
tbS'The Urgency (LP Version)'
tRp1210
aa(lp1211
F0.3494792672775886
aF0.32772818748272264
aF0.012672156751384353
aF0.89266355390973007
aF0.030279896161031269
aaa(lp1212
(lp1213
g4
(g5
(S'S18'
I0
I1
tRp1214
(I3
S'|'
NNNI18
I1
I0
tbS'SOMUYGI12AB0188633'
tRp1215
ag4
(g5
(S'S9'
I0
I1
tRp1216
(I3
S'|'
NNNI9
I1
I0
tbS'Andy Andy'
tRp1217
ag4
(g5
(S'S8'
I0
I1
tRp1218
(I3
S'|'
NNNI8
I1
I0
tbS'La Culpa'
tRp1219
aa(lp1220
F0.37724061936346504
aF0.29191469251440932
aF0
aF0.94633177695486503
aF0.031756609220965119
aaa(lp1221
(lp1222
g4
(g5
(S'S18'
I0
I1
tRp1223
(I3
S'|'
NNNI18
I1
I0
tbS'SORAMLE12AB017C8B0'
tRp1224
ag4
(g5
(S'S9'
I0
I1
tRp1225
(I3
S'|'
NNNI9
I1
I0
tbS'Bob Azzam'
tRp1226
ag4
(g5
(S'S14'
I0
I1
tRp1227
(I3
S'|'
NNNI14
I1
I0
tbS'Auguri Cha Cha'
tRp1228
aa(lp1229
F0.25044836907993029
aF0.22638889062952108
aF0.013488570211557575
aF0.97316588847743246
aF0.029948323130049411
aaa(lp1230
(lp1231
g4
(g5
(S'S18'
I0
I1
tRp1232
(I3
S'|'
NNNI18
I1
I0
tbS'SOBONFF12A6D4F84D8'
tRp1233
ag4
(g5
(S'S13'
I0
I1
tRp1234
(I3
S'|'
NNNI13
I1
I0
tbS'Lionel Richie'
tRp1235
ag4
(g5
(S'S23'
I0
I1
tRp1236
(I3
S'|'
NNNI23
I1
I0
tbS'Tonight Will Be Alright'
tRp1237
aa(lp1238
F0.54980506846342247
aF0.44578372484075973
aF0.02172369728808746
aF0.78532710781946014
aF0.02898433519607288
aaa(lp1239
(lp1240
g4
(g5
(S'S18'
I0
I1
tRp1241
(I3
S'|'
NNNI18
I1
I0
tbS'SOHUOAP12A8AE488E9'
tRp1242
ag4
(g5
(S'S10'
I0
I1
tRp1243
(I3
S'|'
NNNI10
I1
I0
tbS'Blue Rodeo'
tRp1244
ag4
(g5
(S'S8'
I0
I1
tRp1245
(I3
S'|'
NNNI8
I1
I0
tbS'Floating'
tRp1246
aa(lp1247
F0.44528958492587267
aF0.794692456683608
aF0
aF0.89266355390973007
aF0.028612326429605425
aaa(lp1248
(lp1249
g4
(g5
(S'S18'
I0
I1
tRp1250
(I3
S'|'
NNNI18
I1
I0
tbS'SOUQQEA12A8C134B1B'
tRp1251
ag4
(g5
(S'S15'
I0
I1
tRp1252
(I3
S'|'
NNNI15
I1
I0
tbS'Richard Souther'
tRp1253
ag4
(g5
(S'S9'
I0
I1
tRp1254
(I3
S'|'
NNNI9
I1
I0
tbS'High Tide'
tRp1255
aa(lp1256
F0.32885232752158683
aF0.29618056429827644
aF0.0079156609399403666
aF0.9194976654322975
aF0.016426613183667196
aaa(lp1257
(lp1258
g4
(g5
(S'S18'
I0
I1
tRp1259
(I3
S'|'
NNNI18
I1
I0
tbS'SOILPQQ12AB017E82A'
tRp1260
ag4
(g5
(S'S13'
I0
I1
tRp1261
(I3
S'|'
NNNI13
I1
I0
tbS'Faiz Ali Faiz'
tRp1262
ag4
(g5
(S'S20'
I0
I1
tRp1263
(I3
S'|'
NNNI20
I1
I0
tbS'Sohna Nee Sohna Data'
tRp1264
aa(lp1265
F0.30486459841444558
aF1
aF0.042347011216811017
aF0.86582944238716253
aF0.029492208033771925
aaa(lp1266
(lp1267
g4
(g5
(S'S18'
I0
I1
tRp1268
(I3
S'|'
NNNI18
I1
I0
tbS'SOXLBJT12A8C140925'
tRp1269
ag4
(g5
(S'S5'
I0
I1
tRp1270
(I3
S'|'
NNNI5
I1
I0
tbS'Tesla'
tRp1271
ag4
(g5
(S'S17'
I0
I1
tRp1272
(I3
S'|'
NNNI17
I1
I0
tbS'Caught In A Dream'
tRp1273
aa(lp1274
F0.51043033005868077
aF0.4133432522784844
aF0.0051469544228311794
aF0.89266355390973007
aF0.033957930660800786
aaa(lp1275
(lp1276
g4
(g5
(S'S18'
I0
I1
tRp1277
(I3
S'|'
NNNI18
I1
I0
tbS'SOZVMJI12AB01808AF'
tRp1278
ag4
(g5
(S'S9'
I0
I1
tRp1279
(I3
S'|'
NNNI9
I1
I0
tbS'lextrical'
tRp1280
ag4
(g5
(S'S15'
I0
I1
tRp1281
(I3
S'|'
NNNI15
I1
I0
tbS'Synthetic Dream'
tRp1282
aa(lp1283
F0
aF0.17673611637256759
aF0.0057503904586113869
aF0.89266355390973007
aF0.031505907660954444
aaa(lp1284
(lp1285
g4
(g5
(S'S18'
I0
I1
tRp1286
(I3
S'|'
NNNI18
I1
I0
tbS'SOWTBJW12AC468AC6E'
tRp1287
ag4
(g5
(S'S12'
I0
I1
tRp1288
(I3
S'|'
NNNI12
I1
I0
tbS'Jimmy Wakely'
tRp1289
ag4
(g5
(S'S26'
I0
I1
tRp1290
(I3
S'|'
NNNI26
I1
I0
tbS'Broken-Down Merry-Go-Round'
tRp1291
aa(lp1292
F0.28981764053563214
aF0.15044643038552905
aF0.10034786312650859
aF0.73165888477432506
aF0.017864507937534874
aaa(lp1293
(lp1294
g4
(g5
(S'S18'
I0
I1
tRp1295
(I3
S'|'
NNNI18
I1
I0
tbS'SOBEBDG12A58A76D60'
tRp1296
ag4
(g5
(S'S12'
I0
I1
tRp1297
(I3
S'|'
NNNI12
I1
I0
tbS'Alice Stuart'
tRp1298
ag4
(g5
(S'S12'
I0
I1
tRp1299
(I3
S'|'
NNNI12
I1
I0
tbS'Kassie Jones'
tRp1300
aa(lp1301
F0.32661229587552698
aF0.2813492195960956
aF0.0073122249041601582
aF1
aF0.028712607053609698
aaa(lp1302
(lp1303
g4
(g5
(S'S18'
I0
I1
tRp1304
(I3
S'|'
NNNI18
I1
I0
tbS'SOZCTXZ12AB0182364'
tRp1305
ag4
(g5
(S'S5'
I0
I1
tRp1306
(I3
S'|'
NNNI5
I1
I0
tbS'Elena'
tRp1307
ag4
(g5
(S'S14'
I0
I1
tRp1308
(I3
S'|'
NNNI14
I1
I0
tbS'Setanta matins'
tRp1309
aa(lp1310
F0.37602038518312048
aF0.37400793933363813
aF0
aF0.7584929962968926
aF0.029463094304222295
aaa(lp1311
(lp1312
g4
(g5
(S'S18'
I0
I1
tRp1313
(I3
S'|'
NNNI18
I1
I0
tbS'SOBBUGU12A8C13E95D'
tRp1314
ag4
(g5
(S'S25'
I0
I1
tRp1315
(I3
S'|'
NNNI25
I1
I0
tbS'The Dillinger Escape Plan'
tRp1316
ag4
(g5
(S'S31'
I0
I1
tRp1317
(I3
S'|'
NNNI31
I1
I0
tbS'Setting Fire to Sleeping Giants'
tRp1318
aa(lp1319
F0.53868810564965375
aF0.25664683827072204
aF0.0021652704813289792
aF0.89266355390973007
aF0.035586682086160462
aaa(lp1320
(lp1321
g4
(g5
(S'S18'
I0
I1
tRp1322
(I3
S'|'
NNNI18
I1
I0
tbS'SOBLGCN12AB0183212'
tRp1323
ag4
(g5
(S'S12'
I0
I1
tRp1324
(I3
S'|'
NNNI12
I1
I0
tbS'SUE THOMPSON'
tRp1325
ag4
(g5
(S'S30'
I0
I1
tRp1326
(I3
S'|'
NNNI30
I1
I0
tbS'James (Hold The Ladder Steady)'
tRp1327
aa(lp1328
F0.30443333175351894
aF0.099206351466910522
aF0
aF0.97316588847743246
aF0.022537261530249972
aaa(lp1329
(lp1330
g4
(g5
(S'S18'
I0
I1
tRp1331
(I3
S'|'
NNNI18
I1
I0
tbS'SOPSWQW12A6D4F8781'
tRp1332
ag4
(g5
(S'S14'
I0
I1
tRp1333
(I3
S'|'
NNNI14
I1
I0
tbS'Five Bolt Main'
tRp1334
ag4
(g5
(S'S21'
I0
I1
tRp1335
(I3
S'|'
NNNI21
I1
I0
tbS'Made Like This (Live)'
tRp1336
aa(lp1337
F0.36150332461174856
aF0.28953373552191192
aF0
aF0.89266355390973007
aF0.032927628120627883
aaa(lp1338
(lp1339
g4
(g5
(S'S18'
I0
I1
tRp1340
(I3
S'|'
NNNI18
I1
I0
tbS'SOZQDIU12A58A7BCF6'
tRp1341
ag4
(g5
(S'S3'
I0
I1
tRp1342
(I3
S'|'
NNNI3
I1
I0
tbS'Clp'
tRp1343
ag4
(g5
(S'S17'
I0
I1
tRp1344
(I3
S'|'
NNNI17
I1
I0
tbS'Superconfidential'
tRp1345
aa(lp1346
F0.42020877479567248
aF0.50451388339007353
aF0
aF0.86582944238716253
aF0.031992753916200982
aaa(lp1347
(lp1348
g4
(g5
(S'S18'
I0
I1
tRp1349
(I3
S'|'
NNNI18
I1
I0
tbS'SONYPOM12A8C13B2D7'
tRp1350
ag4
(g5
(S'S10'
I0
I1
tRp1351
(I3
S'|'
NNNI10
I1
I0
tbS'Tim Wilson'
tRp1352
ag4
(g5
(S'S51'
I0
I1
tRp1353
(I3
S'|'
NNNI51
I1
I0
tbS'I Think My Wife Is Running Around On Me (Taco Hell)'
tRp1354
aa(lp1355
F0.34784572422372378
aF0.21622024387662364
aF0.038442425102939083
aF0.8389953308645951
aF0.035179089872465694
aaa(lp1356
(lp1357
g4
(g5
(S'S18'
I0
I1
tRp1358
(I3
S'|'
NNNI18
I1
I0
tbS'SOBZBAZ12A6D4F8742'
tRp1359
ag4
(g5
(S'S11'
I0
I1
tRp1360
(I3
S'|'
NNNI11
I1
I0
tbS'Willie Bobo'
tRp1361
ag4
(g5
(S'S14'
I0
I1
tRp1362
(I3
S'|'
NNNI14
I1
I0
tbS'Spanish Grease'
tRp1363
aa(lp1364
F0.37742845770384131
aF0.18159722740455905
aF0.0070992474797671448
aF0.9194976654322975
aF0.026930199833404767
aaa(lp1365
(lp1366
g4
(g5
(S'S18'
I0
I1
tRp1367
(I3
S'|'
NNNI18
I1
I0
tbS'SOVYKGO12AB0187199'
tRp1368
ag4
(g5
(S'S10'
I0
I1
tRp1369
(I3
S'|'
NNNI10
I1
I0
tbS'Faye Adams'
tRp1370
ag4
(g5
(S'S20'
I0
I1
tRp1371
(I3
S'|'
NNNI20
I1
I0
tbS'Crazy Mixed Up World'
tRp1372
aa(lp1373
F0.29746285377941245
aF0.1590773899889748
aF0.019948885418145677
aF0.9194976654322975
aF0.013287182680565777
aaa(lp1374
(lp1375
g4
(g5
(S'S18'
I0
I1
tRp1376
(I3
S'|'
NNNI18
I1
I0
tbS'SOGNCJP12A58A80271'
tRp1377
ag4
(g5
(S'S13'
I0
I1
tRp1378
(I3
S'|'
NNNI13
I1
I0
tbS'Terry Callier'
tRp1379
ag4
(g5
(S'S28'
I0
I1
tRp1380
(I3
S'|'
NNNI28
I1
I0
tbS'Do You Finally Need A Friend'
tRp1381
aa(lp1382
F0.4137147854565224
aF0.51259920226889322
aF0.0022362629561266507
aF0.86582944238716253
aF0.02317291129208349
aaa(lp1383
(lp1384
g4
(g5
(S'S18'
I0
I1
tRp1385
(I3
S'|'
NNNI18
I1
I0
tbS'SOLLHMX12AB01846DC'
tRp1386
ag4
(g5
(S'S11'
I0
I1
tRp1387
(I3
S'|'
NNNI11
I1
I0
tbS'John Wesley'
tRp1388
ag4
(g5
(S'S17'
I0
I1
tRp1389
(I3
S'|'
NNNI17
I1
I0
tbS'The Emperor Falls'
tRp1390
aa(lp1391
F0.4501149092855275
aF0.78234126602092124
aF1
aF0.81216121934202756
aF0.017680120983720567
aaa(lp1392
(lp1393
g4
(g5
(S'S18'
I0
I1
tRp1394
(I3
S'|'
NNNI18
I1
I0
tbS'SOYTPEP12AB0180E7B'
tRp1395
ag4
(g5
(S'S15'
I0
I1
tRp1396
(I3
S'|'
NNNI15
I1
I0
tbS'The Shangri-Las'
tRp1397
ag4
(g5
(S'S15'
I0
I1
tRp1398
(I3
S'|'
NNNI15
I1
I0
tbS'Twist and Shout'
tRp1399
aa(lp1400
F0.41574616861521196
aF0.17504961466390603
aF0
aF0.97316588847743246
aF0.024817837011637402
aaa(lp1401
(lp1402
g4
(g5
(S'S18'
I0
I1
tRp1403
(I3
S'|'
NNNI18
I1
I0
tbS'SOGXHEG12AB018653E'
tRp1404
ag4
(g5
(S'S16'
I0
I1
tRp1405
(I3
S'|'
NNNI16
I1
I0
tbS'Billie Jo Spears'
tRp1406
ag4
(g5
(S'S26'
I0
I1
tRp1407
(I3
S'|'
NNNI26
I1
I0
tbS'It Makes No Difference Now'
tRp1408
aa(lp1409
F0.38233923723084984
aF0.11527779217755331
aF0
aF0.81216121934202756
aF0.026336603236476266
aaa(lp1410
(lp1411
g4
(g5
(S'S18'
I0
I1
tRp1412
(I3
S'|'
NNNI18
I1
I0
tbS'SOOLYAZ12A6701F4A6'
tRp1413
ag4
(g5
(S'S44'
I0
I1
tRp1414
(I3
S'|'
NNNI44
I1
I0
tbS"Mike Jones (Featuring CJ_ Mello & Lil' Bran)"
tRp1415
ag4
(g5
(S'S31'
I0
I1
tRp1416
(I3
S'|'
NNNI31
I1
I0
tbS'Laws Patrolling (Album Version)'
tRp1417
aa(lp1418
F0.4237997527054872
aF0.19186509019316803
aF0
aF0.89266355390973007
aF0.029928913977016323
aaa(lp1419
(lp1420
g4
(g5
(S'S18'
I0
I1
tRp1421
(I3
S'|'
NNNI18
I1
I0
tbS'SOGOSOV12AF72A285E'
tRp1422
ag4
(g5
(S'S14'
I0
I1
tRp1423
(I3
S'|'
NNNI14
I1
I0
tbS'Sierra Maestra'
tRp1424
ag4
(g5
(S'S19'
I0
I1
tRp1425
(I3
S'|'
NNNI19
I1
I0
tbS'\xc2\xbfD\xc3\xb3nde va Chichi?'
tRp1426
aa(lp1427
F0.39041384974325466
aF0.45669642540099137
aF0
aF0.94633177695486503
aF0.027098412493024832
aaa(lp1428
(lp1429
g4
(g5
(S'S18'
I0
I1
tRp1430
(I3
S'|'
NNNI18
I1
I0
tbS'SOJXVAH12A8C139700'
tRp1431
ag4
(g5
(S'S16'
I0
I1
tRp1432
(I3
S'|'
NNNI16
I1
I0
tbS'Butthole Surfers'
tRp1433
ag4
(g5
(S'S29'
I0
I1
tRp1434
(I3
S'|'
NNNI29
I1
I0
tbS'Barking Dogs (From "Piouhgd")'
tRp1435
aa(lp1436
F0.4851371731196179
aF0.71820435571498986
aF0.016576742865256282
aF0.81216121934202756
aF0.027824638302346074
aaa(lp1437
(lp1438
g4
(g5
(S'S18'
I0
I1
tRp1439
(I3
S'|'
NNNI18
I1
I0
tbS'SOVXMTN12A8C135A18'
tRp1440
ag4
(g5
(S'S13'
I0
I1
tRp1441
(I3
S'|'
NNNI13
I1
I0
tbS'Despina Vandi'
tRp1442
ag4
(g5
(S'S18'
I0
I1
tRp1443
(I3
S'|'
NNNI18
I1
I0
tbS'OUTE ENA EFHARISTO'
tRp1444
aa(lp1445
F0.40925716762899433
aF0.43764880743844176
aF0.0023782479057219935
aF0.9194976654322975
aF0.028122245315520045
aaa(lp1446
(lp1447
g4
(g5
(S'S18'
I0
I1
tRp1448
(I3
S'|'
NNNI18
I1
I0
tbS'SORSECL12AB0182267'
tRp1449
ag4
(g5
(S'S16'
I0
I1
tRp1450
(I3
S'|'
NNNI16
I1
I0
tbS'Javier Navarrete'
tRp1451
ag4
(g5
(S'S13'
I0
I1
tRp1452
(I3
S'|'
NNNI13
I1
I0
tbS'Midnight Swim'
tRp1453
aa(lp1454
F0.38039169662890243
aF0.10674602962110415
aF0
aF0.78532710781946014
aF0.013856517836202918
aaa(lp1455
(lp1456
g4
(g5
(S'S18'
I0
I1
tRp1457
(I3
S'|'
NNNI18
I1
I0
tbS'SOOGFBZ12AC3DF7FF2'
tRp1458
ag4
(g5
(S'S11'
I0
I1
tRp1459
(I3
S'|'
NNNI11
I1
I0
tbS'Jacob Young'
tRp1460
ag4
(g5
(S'S15'
I0
I1
tRp1461
(I3
S'|'
NNNI15
I1
I0
tbS'In A Subtle Way'
tRp1462
aa(lp1463
F0.29311955546812207
aF0.7285714345393105
aF0.0085545932131194085
aF0.73165888477432506
aF0.010979110899048138
aaa(lp1464
(lp1465
g4
(g5
(S'S18'
I0
I1
tRp1466
(I3
S'|'
NNNI18
I1
I0
tbS'SOMSBGZ12AB018C4CB'
tRp1467
ag4
(g5
(S'S17'
I0
I1
tRp1468
(I3
S'|'
NNNI17
I1
I0
tbS"Scarlet's Remains"
tRp1469
ag4
(g5
(S'S4'
I0
I1
tRp1470
(I3
S'|'
NNNI4
I1
I0
tbS'Spin'
tRp1471
aa(lp1472
F0.3907998143788492
aF0.23948413509954208
aF0
aF0.89266355390973007
aF0.030402820796907471
aaa(lp1473
(lp1474
g4
(g5
(S'S18'
I0
I1
tRp1475
(I3
S'|'
NNNI18
I1
I0
tbS'SONYRZV12AB018AF70'
tRp1476
ag4
(g5
(S'S20'
I0
I1
tRp1477
(I3
S'|'
NNNI20
I1
I0
tbS'The Suicide Machines'
tRp1478
ag4
(g5
(S'S24'
I0
I1
tRp1479
(I3
S'|'
NNNI24
I1
I0
tbS'Burning In The Aftermath'
tRp1480
aa(lp1481
F0.46477675634724064
aF0.04379961680013645
aF0
aF0.7584929962968926
aF0.039212958844508421
aaa(lp1482
(lp1483
g4
(g5
(S'S18'
I0
I1
tRp1484
(I3
S'|'
NNNI18
I1
I0
tbS'SONQBUB12A6D4F8ED0'
tRp1485
ag4
(g5
(S'S18'
I0
I1
tRp1486
(I3
S'|'
NNNI18
I1
I0
tbS'The Rolling Stones'
tRp1487
ag4
(g5
(S'S29'
I0
I1
tRp1488
(I3
S'|'
NNNI29
I1
I0
tbS'Angie (1993 Digital Remaster)'
tRp1489
aa(lp1490
F0.73141962245538328
aF0.37762897334588263
aF0.0060698565952009087
aF0.94633177695486503
aF0.025730067204192374
aaa(lp1491
(lp1492
g4
(g5
(S'S18'
I0
I1
tRp1493
(I3
S'|'
NNNI18
I1
I0
tbS'SOHGKJW12AC468A8BD'
tRp1494
ag4
(g5
(S'S14'
I0
I1
tRp1495
(I3
S'|'
NNNI14
I1
I0
tbS'Roberto Torres'
tRp1496
ag4
(g5
(S'S13'
I0
I1
tRp1497
(I3
S'|'
NNNI13
I1
I0
tbS'Sabor Guajiro'
tRp1498
aa(lp1499
F0.34801071119168769
aF0.29250993176253365
aF0.011039329831037909
aF0.70482477325175763
aF0.021916168633191267
aaa(lp1500
(lp1501
g4
(g5
(S'S18'
I0
I1
tRp1502
(I3
S'|'
NNNI18
I1
I0
tbS'SOINBCU12A6D4F94C0'
tRp1503
ag4
(g5
(S'S21'
I0
I1
tRp1504
(I3
S'|'
NNNI21
I1
I0
tbS'Loudon Wainwright III'
tRp1505
ag4
(g5
(S'S16'
I0
I1
tRp1506
(I3
S'|'
NNNI16
I1
I0
tbS'Human Cannonball'
tRp1507
aa(lp1508
F0.44015048284492381
aF0.22380952055431555
aF0.009158029248899616
aF0.78532710781946014
aF0.017149604134149593
aaa(lp1509
(lp1510
g4
(g5
(S'S18'
I0
I1
tRp1511
(I3
S'|'
NNNI18
I1
I0
tbS'SOTWVQT12A58A79650'
tRp1512
ag4
(g5
(S'S13'
I0
I1
tRp1513
(I3
S'|'
NNNI13
I1
I0
tbS'R.L. Burnside'
tRp1514
ag4
(g5
(S'S8'
I0
I1
tRp1515
(I3
S'|'
NNNI8
I1
I0
tbS'Glory Be'
tRp1516
aa(lp1517
F0.46387257386046837
aF0.38958333784315313
aF0.0085190969757205724
aF0.7584929962968926
aF0.031251971242104923
aaa(lp1518
(lp1519
g4
(g5
(S'S18'
I0
I1
tRp1520
(I3
S'|'
NNNI18
I1
I0
tbS'SOTSEJY12AB0180F56'
tRp1521
ag4
(g5
(S'S18'
I0
I1
tRp1522
(I3
S'|'
NNNI18
I1
I0
tbS'Stevie Ray Vaughan'
tRp1523
ag4
(g5
(S'S9'
I0
I1
tRp1524
(I3
S'|'
NNNI9
I1
I0
tbS'Crossfire'
tRp1525
aa(lp1526
F0.54104264872573571
aF0.33452381182958213
aF0.0064958114439869373
aF0.73165888477432506
aF0.029859364511981106
aaa(lp1527
(lp1528
g4
(g5
(S'S18'
I0
I1
tRp1529
(I3
S'|'
NNNI18
I1
I0
tbS'SOTSETT12AB01863B8'
tRp1530
ag4
(g5
(S'S12'
I0
I1
tRp1531
(I3
S'|'
NNNI12
I1
I0
tbS'John Hammond'
tRp1532
ag4
(g5
(S'S20'
I0
I1
tRp1533
(I3
S'|'
NNNI20
I1
I0
tbS"I Can't Be Satisfied"
tRp1534
aa(lp1535
F0.45014310270607366
aF0.2329861208823874
aF0
aF0.89266355390973007
aF0.025176906342749467
aaa(lp1536
(lp1537
g4
(g5
(S'S18'
I0
I1
tRp1538
(I3
S'|'
NNNI18
I1
I0
tbS'SOTUNMH12A6D4FA3E6'
tRp1539
ag4
(g5
(S'S33'
I0
I1
tRp1540
(I3
S'|'
NNNI33
I1
I0
tbS'Casiotone For The Painfully Alone'
tRp1541
ag4
(g5
(S'S19'
I0
I1
tRp1542
(I3
S'|'
NNNI19
I1
I0
tbS'Nashville Parthenon'
tRp1543
aa(lp1544
F0.39188861012161147
aF0.19578373433511717
aF0.026054238250745421
aF0.70482477325175763
aF0.024804897576282015
aaa(lp1545
(lp1546
g4
(g5
(S'S18'
I0
I1
tRp1547
(I3
S'|'
NNNI18
I1
I0
tbS'SOEPPKB12AB018418B'
tRp1548
ag4
(g5
(S'S5'
I0
I1
tRp1549
(I3
S'|'
NNNI5
I1
I0
tbS'Ec8or'
tRp1550
ag4
(g5
(S'S12'
I0
I1
tRp1551
(I3
S'|'
NNNI12
I1
I0
tbS'Cocain Ducks'
tRp1552
aa(lp1553
F0.33260105596802636
aF0.27460317478401952
aF0.036987079369586826
aF0.97316588847743246
aF0.02712914365199388
aaa(lp1554
(lp1555
g4
(g5
(S'S18'
I0
I1
tRp1556
(I3
S'|'
NNNI18
I1
I0
tbS'SOGKIWV12A6D4F86C4'
tRp1557
ag4
(g5
(S'S18'
I0
I1
tRp1558
(I3
S'|'
NNNI18
I1
I0
tbS'The New York Dolls'
tRp1559
ag4
(g5
(S'S11'
I0
I1
tRp1560
(I3
S'|'
NNNI11
I1
I0
tbS'Human Being'
tRp1561
aa(lp1562
F0.47647724775386607
aF0.51542658395030516
aF0.0024137441431208292
aF1
aF0.027517326712655575
aaa(lp1563
(lp1564
g4
(g5
(S'S18'
I0
I1
tRp1565
(I3
S'|'
NNNI18
I1
I0
tbS'SOPHYIS12AAF3B35A3'
tRp1566
ag4
(g5
(S'S12'
I0
I1
tRp1567
(I3
S'|'
NNNI12
I1
I0
tbS'Eliane Elias'
tRp1568
ag4
(g5
(S'S18'
I0
I1
tRp1569
(I3
S'|'
NNNI18
I1
I0
tbS'The More I See You'
tRp1570
aa(lp1571
F0.42538661420375423
aF0.33953373742078341
aF0.0025202328553173359
aF0.89266355390973007
aF0.02305969123272383
aaa(lp1572
(lp1573
g4
(g5
(S'S18'
I0
I1
tRp1574
(I3
S'|'
NNNI18
I1
I0
tbS'SOFHBAR12A6701D0FE'
tRp1575
ag4
(g5
(S'S9'
I0
I1
tRp1576
(I3
S'|'
NNNI9
I1
I0
tbS'Lost Boyz'
tRp1577
ag4
(g5
(S'S20'
I0
I1
tRp1578
(I3
S'|'
NNNI20
I1
I0
tbS'Certain Things We Do'
tRp1579
aa(lp1580
F0.40980554990997903
aF0.37440476549905433
aF0.0077381797529461876
aF0.89266355390973007
aF0.024622128051887134
aaa(lp1581
(lp1582
g4
(g5
(S'S18'
I0
I1
tRp1583
(I3
S'|'
NNNI18
I1
I0
tbS'SOCPRKM12AB018A2FD'
tRp1584
ag4
(g5
(S'S9'
I0
I1
tRp1585
(I3
S'|'
NNNI9
I1
I0
tbS'The Germs'
tRp1586
ag4
(g5
(S'S7'
I0
I1
tRp1587
(I3
S'|'
NNNI7
I1
I0
tbS'Forming'
tRp1588
aa(lp1589
F0.40200394639164139
aF0.25337301291168057
aF0
aF1
aF0.023873258230693955
aaa(lp1590
(lp1591
g4
(g5
(S'S18'
I0
I1
tRp1592
(I3
S'|'
NNNI18
I1
I0
tbS'SOFGHAM12AB0186412'
tRp1593
ag4
(g5
(S'S13'
I0
I1
tRp1594
(I3
S'|'
NNNI13
I1
I0
tbS'Yamandu Costa'
tRp1595
ag4
(g5
(S'S6'
I0
I1
tRp1596
(I3
S'|'
NNNI6
I1
I0
tbS'Mafu\xc3\xa1'
tRp1597
aa(lp1598
F0.38121060447332566
aF0.22296626969998476
aF0
aF0.7584929962968926
aF0.01954986939257438
aaa(lp1599
(lp1600
g4
(g5
(S'S18'
I0
I1
tRp1601
(I3
S'|'
NNNI18
I1
I0
tbS'SODHVES12A6701CE6B'
tRp1602
ag4
(g5
(S'S9'
I0
I1
tRp1603
(I3
S'|'
NNNI9
I1
I0
tbS'Chris Rea'
tRp1604
ag4
(g5
(S'S26'
I0
I1
tRp1605
(I3
S'|'
NNNI26
I1
I0
tbS'Driving Home For Christmas'
tRp1606
aa(lp1607
F0.49773382347981376
aF0.32003969476931926
aF0.019487434331960814
aF0.94633177695486503
aF0.028685110753479494
aaa(lp1608
(lp1609
g4
(g5
(S'S18'
I0
I1
tRp1610
(I3
S'|'
NNNI18
I1
I0
tbS'SOXIATP12AAF3B2184'
tRp1611
ag4
(g5
(S'S19'
I0
I1
tRp1612
(I3
S'|'
NNNI19
I1
I0
tbS'Perrey And Kingsley'
tRp1613
ag4
(g5
(S'S15'
I0
I1
tRp1614
(I3
S'|'
NNNI15
I1
I0
tbS'Spooks In Space'
tRp1615
aa(lp1616
F0.33641584697390081
aF0.094990078206541706
aF0.035141275024847367
aF0.70482477325175763
aF0.028668936459285255
aaa(lp1617
(lp1618
g4
(g5
(S'S18'
I0
I1
tRp1619
(I3
S'|'
NNNI18
I1
I0
tbS'SOGNQWU12A8AE4868F'
tRp1620
ag4
(g5
(S'S10'
I0
I1
tRp1621
(I3
S'|'
NNNI10
I1
I0
tbS'Eurythmics'
tRp1622
ag4
(g5
(S'S31'
I0
I1
tRp1623
(I3
S'|'
NNNI31
I1
I0
tbS'Tous Les Gar\xc3\xa7ons Et Les Filles'
tRp1624
aa(lp1625
F0.52060565667756797
aF0.2553075452152635
aF0.091686781201192682
aF0.70482477325175763
aF0.03176146150922339
aaa(lp1626
(lp1627
g4
(g5
(S'S18'
I0
I1
tRp1628
(I3
S'|'
NNNI18
I1
I0
tbS'SOYQOFI12A6D4F76E1'
tRp1629
ag4
(g5
(S'S15'
I0
I1
tRp1630
(I3
S'|'
NNNI15
I1
I0
tbS'Francis Dunnery'
tRp1631
ag4
(g5
(S'S15'
I0
I1
tRp1632
(I3
S'|'
NNNI15
I1
I0
tbS'Too Much Saturn'
tRp1633
aa(lp1634
F0.38125882039698428
aF0.43328373860757807
aF0
aF0.89266355390973007
aF0.020923066969665109
aaa(lp1635
(lp1636
g4
(g5
(S'S18'
I0
I1
tRp1637
(I3
S'|'
NNNI18
I1
I0
tbS'SOVOLGY12A6D4F822B'
tRp1638
ag4
(g5
(S'S9'
I0
I1
tRp1639
(I3
S'|'
NNNI9
I1
I0
tbS'John Cale'
tRp1640
ag4
(g5
(S'S38'
I0
I1
tRp1641
(I3
S'|'
NNNI38
I1
I0
tbS'Movement 4 [from Kiss] (Album Version)'
tRp1642
aa(lp1643
F0.47881078502905106
aF0.29593255269207003
aF0
aF0.89266355390973007
aF0.022407867176696072
aaa(lp1644
(lp1645
g4
(g5
(S'S18'
I0
I1
tRp1646
(I3
S'|'
NNNI18
I1
I0
tbS'SOMZCVH12AB0182B8E'
tRp1647
ag4
(g5
(S'S13'
I0
I1
tRp1648
(I3
S'|'
NNNI13
I1
I0
tbS'Suzanne Ciani'
tRp1649
ag4
(g5
(S'S6'
I0
I1
tRp1650
(I3
S'|'
NNNI6
I1
I0
tbS'Stream'
tRp1651
aa(lp1652
F0.3784557645560902
aF0.31706349852869742
aF0.011039329831037909
aF0.89266355390973007
aF0.0076245622831633665
aaa(lp1653
(lp1654
g4
(g5
(S'S18'
I0
I1
tRp1655
(I3
S'|'
NNNI18
I1
I0
tbS'SONXJBL12AAF3B2C0C'
tRp1656
ag4
(g5
(S'S13'
I0
I1
tRp1657
(I3
S'|'
NNNI13
I1
I0
tbS'Vickie Winans'
tRp1658
ag4
(g5
(S'S12'
I0
I1
tRp1659
(I3
S'|'
NNNI12
I1
I0
tbS'Make Me Over'
tRp1660
aa(lp1661
F0.3945116942692542
aF0.29682540206989905
aF0.011997728240806475
aF1
aF0.028434409193468818
aaa(lp1662
(lp1663
g4
(g5
(S'S18'
I0
I1
tRp1664
(I3
S'|'
NNNI18
I1
I0
tbS'SOYWZTU12AB0180E26'
tRp1665
ag4
(g5
(S'S13'
I0
I1
tRp1666
(I3
S'|'
NNNI13
I1
I0
tbS'The Berzerker'
tRp1667
ag4
(g5
(S'S13'
I0
I1
tRp1668
(I3
S'|'
NNNI13
I1
I0
tbS'Deform (live)'
tRp1669
aa(lp1670
F0.45485119949462399
aF0.17658730181335774
aF0.077062331392872344
aF0.73165888477432506
aF0.032419755282928835
aaa(lp1671
(lp1672
g4
(g5
(S'S18'
I0
I1
tRp1673
(I3
S'|'
NNNI18
I1
I0
tbS'SOLGHDZ12AB0183B11'
tRp1674
ag4
(g5
(S'S13'
I0
I1
tRp1675
(I3
S'|'
NNNI13
I1
I0
tbS'Kings Of Leon'
tRp1676
ag4
(g5
(S'S12'
I0
I1
tRp1677
(I3
S'|'
NNNI12
I1
I0
tbS'Wicker Chair'
tRp1678
aa(lp1679
F0.78414656298125385
aF0.21894840952232408
aF0.011642765866818118
aF0.70482477325175763
aF0.032929245550047309
aaa(lp1680
(lp1681
g4
(g5
(S'S18'
I0
I1
tRp1682
(I3
S'|'
NNNI18
I1
I0
tbS'SOTNTNJ12AAA15FBD6'
tRp1683
ag4
(g5
(S'S11'
I0
I1
tRp1684
(I3
S'|'
NNNI11
I1
I0
tbS'Edith Lefel'
tRp1685
ag4
(g5
(S'S12'
I0
I1
tRp1686
(I3
S'|'
NNNI12
I1
I0
tbS"An ti chans'"
tRp1687
aa(lp1688
F0.2982741554893189
aF0.38715278232715744
aF0.010613374982251881
aF0.70482477325175763
aF0.034981763483295999
aaa(lp1689
(lp1690
g4
(g5
(S'S18'
I0
I1
tRp1691
(I3
S'|'
NNNI18
I1
I0
tbS'SOXZXXV12AAF3B3A67'
tRp1692
ag4
(g5
(S'S5'
I0
I1
tRp1693
(I3
S'|'
NNNI5
I1
I0
tbS'Taras'
tRp1694
ag4
(g5
(S'S35'
I0
I1
tRp1695
(I3
S'|'
NNNI35
I1
I0
tbS"I Will Love Again (JJ's Club Radio)"
tRp1696
aa(lp1697
F0.18819661984470035
aF0.24236111530445237
aF0
aF1
aF0.032966446426694052
aaa(lp1698
(lp1699
g4
(g5
(S'S18'
I0
I1
tRp1700
(I3
S'|'
NNNI18
I1
I0
tbS'SOPIKEG12A58291636'
tRp1701
ag4
(g5
(S'S4'
I0
I1
tRp1702
(I3
S'|'
NNNI4
I1
I0
tbS'NOFX'
tRp1703
ag4
(g5
(S'S17'
I0
I1
tRp1704
(I3
S'|'
NNNI17
I1
I0
tbS'Stickin In My Eye'
tRp1705
aa(lp1706
F0.55101736260375378
aF0.13650793506117725
aF0.0084126082635240657
aF0.81216121934202756
aF0.029888478241530736
aaa(lp1707
(lp1708
g4
(g5
(S'S18'
I0
I1
tRp1709
(I3
S'|'
NNNI18
I1
I0
tbS'SOIRNBO12AC468D207'
tRp1710
ag4
(g5
(S'S12'
I0
I1
tRp1711
(I3
S'|'
NNNI12
I1
I0
tbS'Murskahumppa'
tRp1712
ag4
(g5
(S'S10'
I0
I1
tRp1713
(I3
S'|'
NNNI10
I1
I0
tbS'Ota kiinni'
tRp1714
aa(lp1715
F0.2664545756139623
aF0.40362103021450146
aF0
aF0.89266355390973007
aF0.028754660218514715
aaa(lp1716
(lp1717
g4
(g5
(S'S18'
I0
I1
tRp1718
(I3
S'|'
NNNI18
I1
I0
tbS'SOSBDSF12AB0189007'
tRp1719
ag4
(g5
(S'S11'
I0
I1
tRp1720
(I3
S'|'
NNNI11
I1
I0
tbS'Soda Stereo'
tRp1721
ag4
(g5
(S'S16'
I0
I1
tRp1722
(I3
S'|'
NNNI16
I1
I0
tbS'Entre Can\xc3\xadbales'
tRp1723
aa(lp1724
F0.46406950731409446
aF0.33055555017541965
aF0.011429788442425103
aF0.89266355390973007
aF0.026951226415857274
aaa(lp1725
(lp1726
g4
(g5
(S'S18'
I0
I1
tRp1727
(I3
S'|'
NNNI18
I1
I0
tbS'SOIJXXM12A8C1416D6'
tRp1728
ag4
(g5
(S'S13'
I0
I1
tRp1729
(I3
S'|'
NNNI13
I1
I0
tbS'Bruce Rowland'
tRp1730
ag4
(g5
(S'S16'
I0
I1
tRp1731
(I3
S'|'
NNNI16
I1
I0
tbS'Rosemary Recalls'
tRp1732
aa(lp1733
F0.29867971511373065
aF0.021676586561253472
aF0.011642765866818118
aF0.89266355390973007
aF0
aaa(lp1734
(lp1735
g4
(g5
(S'S18'
I0
I1
tRp1736
(I3
S'|'
NNNI18
I1
I0
tbS'SOHMMMC12AB0181C42'
tRp1737
ag4
(g5
(S'S9'
I0
I1
tRp1738
(I3
S'|'
NNNI9
I1
I0
tbS'Xcultures'
tRp1739
ag4
(g5
(S'S14'
I0
I1
tRp1740
(I3
S'|'
NNNI14
I1
I0
tbS'Sudanese Dance'
tRp1741
aa(lp1742
F0.26470243270325089
aF0.3814980189643335
aF0.077275308817265367
aF0.73165888477432506
aF0.032285508641116671
aaa(lp1743
(lp1744
g4
(g5
(S'S18'
I0
I1
tRp1745
(I3
S'|'
NNNI18
I1
I0
tbS'SOVJXVJ12A8C13517D'
tRp1746
ag4
(g5
(S'S11'
I0
I1
tRp1747
(I3
S'|'
NNNI11
I1
I0
tbS'White Heart'
tRp1748
ag4
(g5
(S'S55'
I0
I1
tRp1749
(I3
S'|'
NNNI55
I1
I0
tbS'Where The Thunder Roars (Tales Of Wonder Album Version)'
tRp1750
aa(lp1751
F0.33551367831205764
aF0.42956348855962201
aF0.6777296606559704
aF0.8389953308645951
aF0.026312341795184914
aaa(lp1752
(lp1753
g4
(g5
(S'S18'
I0
I1
tRp1754
(I3
S'|'
NNNI18
I1
I0
tbS'SOFZCTA12AB0188D8F'
tRp1755
ag4
(g5
(S'S17'
I0
I1
tRp1756
(I3
S'|'
NNNI17
I1
I0
tbS'Heavy D / McGruff'
tRp1757
ag4
(g5
(S'S17'
I0
I1
tRp1758
(I3
S'|'
NNNI17
I1
I0
tbS'Wanna Be A Player'
tRp1759
aa(lp1760
F0.3615199708856629
aF0.1685516004467513
aF0.0058568791708078945
aF0.8389953308645951
aF0.027666130219242552
aaa(lp1761
(lp1762
g4
(g5
(S'S18'
I0
I1
tRp1763
(I3
S'|'
NNNI18
I1
I0
tbS'SOLRYQR12A670215BF'
tRp1764
ag4
(g5
(S'S9'
I0
I1
tRp1765
(I3
S'|'
NNNI9
I1
I0
tbS'Van Halen'
tRp1766
ag4
(g5
(S'S33'
I0
I1
tRp1767
(I3
S'|'
NNNI33
I1
I0
tbS'Panama (Remastered Album Version)'
tRp1768
aa(lp1769
F0.57656306432974713
aF0.25952381847563233
aF0
aF0.9194976654322975
aF0.034614607005086812
aaa(lp1770
(lp1771
g4
(g5
(S'S18'
I0
I1
tRp1772
(I3
S'|'
NNNI18
I1
I0
tbS'SOCHRXB12A8AE48069'
tRp1773
ag4
(g5
(S'S15'
I0
I1
tRp1774
(I3
S'|'
NNNI15
I1
I0
tbS'Black Eyed Peas'
tRp1775
ag4
(g5
(S'S20'
I0
I1
tRp1776
(I3
S'|'
NNNI20
I1
I0
tbS"Let's Get It Started"
tRp1777
aa(lp1778
F1
aF0.29811507761314443
aF0
aF1
aF0.034587110704956611
aaa(lp1779
(lp1780
g4
(g5
(S'S18'
I0
I1
tRp1781
(I3
S'|'
NNNI18
I1
I0
tbS'SOKBBXO12A6701DEA0'
tRp1782
ag4
(g5
(S'S15'
I0
I1
tRp1783
(I3
S'|'
NNNI15
I1
I0
tbS'Nine Inch Nails'
tRp1784
ag4
(g5
(S'S5'
I0
I1
tRp1785
(I3
S'|'
NNNI5
I1
I0
tbS'Metal'
tRp1786
aa(lp1787
F0.59492348588364785
aF0.67271825619490688
aF0.010151923896067016
aF0.70482477325175763
aF0.021536072719626695
aaa(lp1788
(lp1789
g4
(g5
(S'S18'
I0
I1
tRp1790
(I3
S'|'
NNNI18
I1
I0
tbS'SOWHYUG12A58A77FAB'
tRp1791
ag4
(g5
(S'S25'
I0
I1
tRp1792
(I3
S'|'
NNNI25
I1
I0
tbS'Nick Cave & The Bad Seeds'
tRp1793
ag4
(g5
(S'S37'
I0
I1
tRp1794
(I3
S'|'
NNNI37
I1
I0
tbS'She Fell Away (2009 Digital Remaster)'
tRp1795
aa(lp1796
F0.47657587793361611
aF0.37341270008551375
aF0.13804486724407211
aF0.94633177695486503
aF0.023476988022935148
aaa(lp1797
(lp1798
g4
(g5
(S'S18'
I0
I1
tRp1799
(I3
S'|'
NNNI18
I1
I0
tbS'SOYSTDI12A6D4F6500'
tRp1800
ag4
(g5
(S'S12'
I0
I1
tRp1801
(I3
S'|'
NNNI12
I1
I0
tbS'Nadine Renee'
tRp1802
ag4
(g5
(S'S9'
I0
I1
tRp1803
(I3
S'|'
NNNI9
I1
I0
tbS'Next Time'
tRp1804
aa(lp1805
F0.13842487795898867
aF0.33571429032583083
aF0.022966065597046715
aF0.7584929962968926
aF0.031657946026380272
aaa(lp1806
(lp1807
g4
(g5
(S'S18'
I0
I1
tRp1808
(I3
S'|'
NNNI18
I1
I0
tbS'SOOOROX12A6D4F8400'
tRp1809
ag4
(g5
(S'S11'
I0
I1
tRp1810
(I3
S'|'
NNNI11
I1
I0
tbS'Lesley Gore'
tRp1811
ag4
(g5
(S'S13'
I0
I1
tRp1812
(I3
S'|'
NNNI13
I1
I0
tbS"It's My Party"
tRp1813
aa(lp1814
F0.38680240953153333
aF0.12127976419358023
aF0.00812863836433338
aF0.94633177695486503
aF0.027779350278602212
aaa(lp1815
(lp1816
g4
(g5
(S'S18'
I0
I1
tRp1817
(I3
S'|'
NNNI18
I1
I0
tbS'SONSPZE12AB01819CE'
tRp1818
ag4
(g5
(S'S9'
I0
I1
tRp1819
(I3
S'|'
NNNI9
I1
I0
tbS'Smartbomb'
tRp1820
ag4
(g5
(S'S13'
I0
I1
tRp1821
(I3
S'|'
NNNI13
I1
I0
tbS'Complicate It'
tRp1822
aa(lp1823
F0.32058022885557497
aF0.30505953550792864
aF0.013701547635950589
aF0.70482477325175763
aF0.038184273733754936
aaa(lp1824
(lp1825
g4
(g5
(S'S18'
I0
I1
tRp1826
(I3
S'|'
NNNI18
I1
I0
tbS'SOHWGFU12AB017B036'
tRp1827
ag4
(g5
(S'S7'
I0
I1
tRp1828
(I3
S'|'
NNNI7
I1
I0
tbS'Suburbs'
tRp1829
ag4
(g5
(S'S12'
I0
I1
tRp1830
(I3
S'|'
NNNI12
I1
I0
tbS'Monde De Fou'
tRp1831
aa(lp1832
F0.33366918822810399
aF0.21765873397907878
aF0.0037980974016754224
aF0.73165888477432506
aF0.03533436309673036
aaa(lp1833
(lp1834
g4
(g5
(S'S18'
I0
I1
tRp1835
(I3
S'|'
NNNI18
I1
I0
tbS'SOQQVQJ12AB0185192'
tRp1836
ag4
(g5
(S'S7'
I0
I1
tRp1837
(I3
S'|'
NNNI7
I1
I0
tbS'Emperor'
tRp1838
ag4
(g5
(S'S22'
I0
I1
tRp1839
(I3
S'|'
NNNI22
I1
I0
tbS'Opus a Satana (Part 2)'
tRp1840
aa(lp1841
F0.45071306439136044
aF0
aF0
aF0.94633177695486503
aF0.024609188616531743
aaa(lp1842
(lp1843
g4
(g5
(S'S18'
I0
I1
tRp1844
(I3
S'|'
NNNI18
I1
I0
tbS'SODRHHD12AB0189F2A'
tRp1845
ag4
(g5
(S'S12'
I0
I1
tRp1846
(I3
S'|'
NNNI12
I1
I0
tbS'Julien Clerc'
tRp1847
ag4
(g5
(S'S18'
I0
I1
tRp1848
(I3
S'|'
NNNI18
I1
I0
tbS'This Melody (Live)'
tRp1849
aa(lp1850
F0.36223255098262863
aF0.37981151725567192
aF0.098502058781769125
aF0.7584929962968926
aF0.026357629818928776
aaa(lp1851
(lp1852
g4
(g5
(S'S18'
I0
I1
tRp1853
(I3
S'|'
NNNI18
I1
I0
tbS'SOQGFVO12A8C13C8C3'
tRp1854
ag4
(g5
(S'S13'
I0
I1
tRp1855
(I3
S'|'
NNNI13
I1
I0
tbS'Glen Campbell'
tRp1856
ag4
(g5
(S'S18'
I0
I1
tRp1857
(I3
S'|'
NNNI18
I1
I0
tbS"I'm Gone This Time"
tRp1858
aa(lp1859
F0.47818289274305464
aF0.13318453016735252
aF0.0077381797529461876
aF0.73165888477432506
aF0.024149838661415408
aaa(lp1860
(lp1861
g4
(g5
(S'S18'
I0
I1
tRp1862
(I3
S'|'
NNNI18
I1
I0
tbS'SORABMD12A8C136672'
tRp1863
ag4
(g5
(S'S13'
I0
I1
tRp1864
(I3
S'|'
NNNI13
I1
I0
tbS'T.G. Sheppard'
tRp1865
ag4
(g5
(S'S22'
I0
I1
tRp1866
(I3
S'|'
NNNI22
I1
I0
tbS'You Feel Good All Over'
tRp1867
aa(lp1868
F0.34125416117944202
aF0.23070436093688654
aF0.0031591651284963791
aF0.8389953308645951
aF0.017282233346542338
aaa(lp1869
(lp1870
g4
(g5
(S'S18'
I0
I1
tRp1871
(I3
S'|'
NNNI18
I1
I0
tbS'SOTUBVH12AB018D2EC'
tRp1872
ag4
(g5
(S'S12'
I0
I1
tRp1873
(I3
S'|'
NNNI12
I1
I0
tbS'Slim Whitman'
tRp1874
ag4
(g5
(S'S16'
I0
I1
tRp1875
(I3
S'|'
NNNI16
I1
I0
tbS'Indian Love Call'
tRp1876
aa(lp1877
F0.38438508859607656
aF0.23412698186642286
aF0.0058568791708078945
aF0.78532710781946014
aF0.023106596685887118
aaa(lp1878
(lp1879
g4
(g5
(S'S18'
I0
I1
tRp1880
(I3
S'|'
NNNI18
I1
I0
tbS'SOMQAGT12A8C132DB4'
tRp1881
ag4
(g5
(S'S13'
I0
I1
tRp1882
(I3
S'|'
NNNI13
I1
I0
tbS'Savage Garden'
tRp1883
ag4
(g5
(S'S21'
I0
I1
tRp1884
(I3
S'|'
NNNI21
I1
I0
tbS'You Can Still Be Free'
tRp1885
aa(lp1886
F0.534891985158508
aF0.086805562280725432
aF0
aF0.94633177695486503
aF0.024343930191746254
aaa(lp1887
(lp1888
g4
(g5
(S'S18'
I0
I1
tRp1889
(I3
S'|'
NNNI18
I1
I0
tbS'SOKLLOH12A67020F2C'
tRp1890
ag4
(g5
(S'S23'
I0
I1
tRp1891
(I3
S'|'
NNNI23
I1
I0
tbS'Queens Of The Stone Age'
tRp1892
ag4
(g5
(S'S12'
I0
I1
tRp1893
(I3
S'|'
NNNI12
I1
I0
tbS'I Never Came'
tRp1894
aa(lp1895
F0.54915031305275064
aF0.40977183577845322
aF0.0040110748260684366
aF0.7584929962968926
aF0.029277089920988573
aaa(lp1896
(lp1897
g4
(g5
(S'S18'
I0
I1
tRp1898
(I3
S'|'
NNNI18
I1
I0
tbS'SONRLQH12AB017C232'
tRp1899
ag4
(g5
(S'S40'
I0
I1
tRp1900
(I3
S'|'
NNNI40
I1
I0
tbS'Hank Penny & The Lincoln Penny Orchestra'
tRp1901
ag4
(g5
(S'S5'
I0
I1
tRp1902
(I3
S'|'
NNNI5
I1
I0
tbS'Dixie'
tRp1903
aa(lp1904
F0.34554566808795051
aF0.096081359655793841
aF0.035531733636234554
aF0.89266355390973007
aF0.021958221798096283
aaa(lp1905
(lp1906
g4
(g5
(S'S18'
I0
I1
tRp1907
(I3
S'|'
NNNI18
I1
I0
tbS'SODDZAD12A6701DC4C'
tRp1908
ag4
(g5
(S'S16'
I0
I1
tRp1909
(I3
S'|'
NNNI16
I1
I0
tbS'Inspiral Carpets'
tRp1910
ag4
(g5
(S'S16'
I0
I1
tRp1911
(I3
S'|'
NNNI16
I1
I0
tbS'Commercial Reign'
tRp1912
aa(lp1913
F0.39619336787716086
aF0.40094246309229936
aF0
aF0.7584929962968926
aF0.028411765181596885
aaa(lp1914
(lp1915
g4
(g5
(S'S18'
I0
I1
tRp1916
(I3
S'|'
NNNI18
I1
I0
tbS'SORENXV12A6701F61F'
tRp1917
ag4
(g5
(S'S8'
I0
I1
tRp1918
(I3
S'|'
NNNI8
I1
I0
tbS'Borialis'
tRp1919
ag4
(g5
(S'S9'
I0
I1
tRp1920
(I3
S'|'
NNNI9
I1
I0
tbS'Hourglass'
tRp1921
aa(lp1922
F0.41892585934859783
aF0.31651785780407132
aF0.0064603152065881011
aF0.7584929962968926
aF0.033170242533541443
aaa(lp1923
(lp1924
g4
(g5
(S'S18'
I0
I1
tRp1925
(I3
S'|'
NNNI18
I1
I0
tbS'SOYMMDY12AB01825B2'
tRp1926
ag4
(g5
(S'S16'
I0
I1
tRp1927
(I3
S'|'
NNNI16
I1
I0
tbS'The Dirty Skirts'
tRp1928
ag4
(g5
(S'S4'
I0
I1
tRp1929
(I3
S'|'
NNNI4
I1
I0
tbS'Wake'
tRp1930
aa(lp1931
F0.40179475589339303
aF0.25471230596713912
aF0.0034076387902882295
aF0.70482477325175763
aF0.034546674969471017
aaa(lp1932
(lp1933
g4
(g5
(S'S18'
I0
I1
tRp1934
(I3
S'|'
NNNI18
I1
I0
tbS'SOJWQIP12A6D4F710A'
tRp1935
ag4
(g5
(S'S14'
I0
I1
tRp1936
(I3
S'|'
NNNI14
I1
I0
tbS'Flor Silvestre'
tRp1937
ag4
(g5
(S'S16'
I0
I1
tRp1938
(I3
S'|'
NNNI16
I1
I0
tbS'Caricia Y Herida'
tRp1939
aa(lp1940
F0.31171713010918389
aF0.11810517385896527
aF0
aF1
aF0.029328847662410132
aaa(lp1941
(lp1942
g4
(g5
(S'S18'
I0
I1
tRp1943
(I3
S'|'
NNNI18
I1
I0
tbS'SOOVOKS12AB017EE57'
tRp1944
ag4
(g5
(S'S5'
I0
I1
tRp1945
(I3
S'|'
NNNI5
I1
I0
tbS'B\xc3\xa9zu'
tRp1946
ag4
(g5
(S'S13'
I0
I1
tRp1947
(I3
S'|'
NNNI13
I1
I0
tbS'Le tortillard'
tRp1948
aa(lp1949
F0.14810544348934845
aF0.40451389858104547
aF0.014092006247337783
aF0.9194976654322975
aF0.027776115419763367
aaa(lp1950
(lp1951
g4
(g5
(S'S18'
I0
I1
tRp1952
(I3
S'|'
NNNI18
I1
I0
tbS'SORWHWY12A6702038E'
tRp1953
ag4
(g5
(S'S6'
I0
I1
tRp1954
(I3
S'|'
NNNI6
I1
I0
tbS'Redman'
tRp1955
ag4
(g5
(S'S11'
I0
I1
tRp1956
(I3
S'|'
NNNI11
I1
I0
tbS'WKYA (drop)'
tRp1957
aa(lp1958
F0.49065140873023971
aF0.097916675923665222
aF0
aF0.73165888477432506
aF0.025830347828196647
aaa(lp1959
(lp1960
g4
(g5
(S'S18'
I0
I1
tRp1961
(I3
S'|'
NNNI18
I1
I0
tbS'SOGYYLE12A8C13E5EA'
tRp1962
ag4
(g5
(S'S18'
I0
I1
tRp1963
(I3
S'|'
NNNI18
I1
I0
tbS'Solistiyhtye Suomi'
tRp1964
ag4
(g5
(S'S11'
I0
I1
tRp1965
(I3
S'|'
NNNI11
I1
I0
tbS'Ter\xc3\xa4slintu'
tRp1966
aa(lp1967
F0.31593369256708176
aF0.11671628228000845
aF0.15763879028822944
aF0.81216121934202756
aF0.02171722481460215
aaa(lp1968
(lp1969
g4
(g5
(S'S18'
I0
I1
tRp1970
(I3
S'|'
NNNI18
I1
I0
tbS'SOITUXQ12AB0183AE9'
tRp1971
ag4
(g5
(S'S12'
I0
I1
tRp1972
(I3
S'|'
NNNI12
I1
I0
tbS'Eddie Cantor'
tRp1973
ag4
(g5
(S'S30'
I0
I1
tRp1974
(I3
S'|'
NNNI30
I1
I0
tbS"Now's The Time To Fall In Love"
tRp1975
aa(lp1976
F0.32913442081589528
aF0.15758930136302138
aF0.0054664205594207012
aF1
aF0.020308443790284098
aaa(lp1977
(lp1978
g4
(g5
(S'S18'
I0
I1
tRp1979
(I3
S'|'
NNNI18
I1
I0
tbS'SOTWEZZ12A8C142B60'
tRp1980
ag4
(g5
(S'S8'
I0
I1
tRp1981
(I3
S'|'
NNNI8
I1
I0
tbS'Schizoid'
tRp1982
ag4
(g5
(S'S49'
I0
I1
tRp1983
(I3
S'|'
NNNI49
I1
I0
tbS'Grim Prospects (Gross Prospects - Bad Trip Remix)'
tRp1984
aa(lp1985
F0.34712958543790445
aF0.38506945445307961
aF0
aF0.94633177695486503
aF0.039056068190824321
aaa(lp1986
(lp1987
g4
(g5
(S'S18'
I0
I1
tRp1988
(I3
S'|'
NNNI18
I1
I0
tbS'SOUVRGZ12A58A77F90'
tRp1989
ag4
(g5
(S'S11'
I0
I1
tRp1990
(I3
S'|'
NNNI11
I1
I0
tbS'Kai Winding'
tRp1991
ag4
(g5
(S'S6'
I0
I1
tRp1992
(I3
S'|'
NNNI6
I1
I0
tbS'Mangos'
tRp1993
aa(lp1994
F0.31448533964088665
aF0.28645834223429351
aF0.010329405083061195
aF0.70482477325175763
aF0.019130955172943637
aaa(lp1995
(lp1996
g4
(g5
(S'S18'
I0
I1
tRp1997
(I3
S'|'
NNNI18
I1
I0
tbS'SOBLTSM12A6D4F9EEA'
tRp1998
ag4
(g5
(S'S13'
I0
I1
tRp1999
(I3
S'|'
NNNI13
I1
I0
tbS'Sonny Simmons'
tRp2000
ag4
(g5
(S'S15'
I0
I1
tRp2001
(I3
S'|'
NNNI15
I1
I0
tbS'A Distant Voice'
tRp2002
aa(lp2003
F0.31595647657328418
aF0.70376983717822528
aF0.0081641346017322161
aF0.73165888477432506
aF0.021453583819236084
aaa.