(lp1
(lp2
F0.36488156311043585
aF0.27544821667126534
aF0.4634540094189214
acnumpy.core.multiarray
_reconstruct
p3
(cnumpy
ndarray
p4
(I0
tS'b'
tRp5
(I1
(I0
tcnumpy
dtype
p6
(S'i4'
I0
I1
tRp7
(I3
S'<'
NNNI-1
I-1
I0
tbI00
S''
tbaF0
aa(lp8
F0.36484949981255305
aF0.14141795198138096
aF0.65523102729845906
ag3
(g4
(I0
tS'b'
tRp9
(I1
(I1
tg7
I00
S'\x01\x00\x00\x00'
tbaF0.9800895968143355
aa(lp10
F0.62891665515676487
aF0.19200800513240723
aF0.31607290462161985
ag3
(g4
(I0
tS'b'
tRp11
(I1
(I0
tg7
I00
S''
tbaF0
aa(lp12
F0.34860573982360255
aF0.30476857981452748
aF0.22948078384641002
aF1
aF0.98656047784967649
aa(lp13
F0.74777653361220187
aF0.25176907714647268
aF0.22629461720697869
ag3
(g4
(I0
tS'b'
tRp14
(I1
(I0
tg7
I00
S''
tbaF0.99900447984071672
aa(lp15
F0.045469456009155307
aF0.35277018725045989
aF0.14214872315703617
ag3
(g4
(I0
tS'b'
tRp16
(I1
(I0
tg7
I00
S''
tbaF0
aa(lp17
F0.025720930920857914
aF0.079536795075143427
aF0.2606952938183974
ag3
(g4
(I0
tS'b'
tRp18
(I1
(I0
tg7
I00
S''
tbaF0
aa(lp19
F0.0048205935163078868
aF0.21215600634853274
aF0.1662266330753869
ag3
(g4
(I0
tS'b'
tRp20
(I1
(I0
tg7
I00
S''
tbaF0
aa(lp21
F0.43558606775714764
aF0.3685657522222478
aF0.13214931778409167
ag3
(g4
(I0
tS'b'
tRp22
(I1
(I0
tg7
I00
S''
tbaF0.98755599800895966
aa(lp23
F0.84763767486829389
aF0.36094829333859579
aF1
ag3
(g4
(I0
tS'b'
tRp24
(I1
(I0
tg7
I00
S''
tbaF0
aa(lp25
F0.65867139559203647
aF0.2658316717668065
aF0.12117920815597034
ag3
(g4
(I0
tS'b'
tRp26
(I1
(I0
tg7
I00
S''
tbaF0
aa(lp27
F0.19596471064106866
aF0.31890811931079099
aF0.42096281759951043
ag3
(g4
(I0
tS'b'
tRp28
(I1
(I0
tg7
I00
S''
tbaF0
aa(lp29
F0.70394353899883588
aF0.28732675620778841
aF0.7562209681622315
ag3
(g4
(I0
tS'b'
tRp30
(I1
(I0
tg7
I00
S''
tbaF0
aa(lp31
F1
aF0.22456696886516858
aF0.52501113355835682
ag3
(g4
(I0
tS'b'
tRp32
(I1
(I0
tg7
I00
S''
tbaF0
aa(lp33
F0.025704899271916496
aF0.44279291828779754
aF0.47605289304923865
ag3
(g4
(I0
tS'b'
tRp34
(I1
(I1
tg7
I00
S'\x01\x00\x00\x00'
tbaF0.98855151816824294
aa(lp35
F0.16050763599771117
aF0.79844990848606301
aF0.43649754469275953
aF1.25
aF0.98904927824788447
aa(lp36
F0.17880344705116316
aF0.28845700316386408
aF0.44024784252908106
ag3
(g4
(I0
tS'b'
tRp37
(I1
(I0
tg7
I00
S''
tbaF0
aa(lp38
F0.65387053333596412
aF1
aF0.44112681804151449
ag3
(g4
(I0
tS'b'
tRp39
(I1
(I0
tg7
I00
S''
tbaF0
aa(lp40
F0.45300753734140997
aF0.40323687058455282
aF0.1952724344296683
ag3
(g4
(I0
tS'b'
tRp41
(I1
(I0
tg7
I00
S''
tbaF0.99751119960179191
aa(lp42
F0.66116246719677985
aF0.16822129026043853
aF0.38082395103400457
ag3
(g4
(I0
tS'b'
tRp43
(I1
(I0
tg7
I00
S''
tbaF0
aa(lp44
F0.74012820386338074
aF0.14030964278870409
aF0.45555453169693327
ag3
(g4
(I0
tS'b'
tRp45
(I1
(I0
tg7
I00
S''
tbaF0
aa(lp46
F0.28952294745565399
aF0.27238289989177544
aF0.4054824511935709
ag3
(g4
(I0
tS'b'
tRp47
(I1
(I0
tg7
I00
S''
tbaF0
aa(lp48
F0.47111836783015332
aF0.34175825393577969
aF0.086552067826047643
ag3
(g4
(I0
tS'b'
tRp49
(I1
(I0
tg7
I00
S''
tbaF0
aa(lp50
F0.2693292358082911
aF0.25333332644412559
aF0.20476114263409417
aF1
aF0.99751119960179191
aa(lp51
F0.79889036325250096
aF0.099808025514604562
aF0.73080883829771603
ag3
(g4
(I0
tS'b'
tRp52
(I1
(I0
tg7
I00
S''
tbaF0.9880537580886013
aa(lp53
F0.050269085061462875
aF0.29186698996882771
aF0.064622584093035437
ag3
(g4
(I0
tS'b'
tRp54
(I1
(I0
tg7
I00
S''
tbaF0
aa(lp55
F0.82260733805568165
aF0.50137517829204392
aF0.7026826465743321
ag3
(g4
(I0
tS'b'
tRp56
(I1
(I0
tg7
I00
S''
tbaF0
aa(lp57
F0.19227373177324836
aF0.21465556309805542
aF0.33600932823003865
ag3
(g4
(I0
tS'b'
tRp58
(I1
(I0
tg7
I00
S''
tbaF0.99800895968143355
aa(lp59
F0.067551202620311362
aF0.17989756482054226
aF0.59732442172501177
ag3
(g4
(I0
tS'b'
tRp60
(I1
(I0
tg7
I00
S''
tbaF0.99402687904430065
aa(lp61
F0.45475128746473037
aF0.15124158555822836
aF0.10513541766052976
ag3
(g4
(I0
tS'b'
tRp62
(I1
(I0
tg7
I00
S''
tbaF0.97610751617720259
aa(lp63
F0.27544715968508909
aF0.50197488343676455
aF0.074076214399184437
ag3
(g4
(I0
tS'b'
tRp64
(I1
(I1
tg7
I00
S'\x01\x00\x00\x00'
tbaF0.98158287705326031
aa(lp65
F0.56548188670310373
aF0.77180633673400556
aF0.26063811200077158
ag3
(g4
(I0
tS'b'
tRp66
(I1
(I0
tg7
I00
S''
tbaF0
aa(lp67
F0.78731797912432666
aF0.1617449189572164
aF0.31444263856152954
ag3
(g4
(I0
tS'b'
tRp68
(I1
(I0
tg7
I00
S''
tbaF0.9776007964161274
aa(lp69
F0.81242724097788122
aF0.11353276393008066
aF0.090122852101543374
ag3
(g4
(I0
tS'b'
tRp70
(I1
(I0
tg7
I00
S''
tbaF0.99153807864609256
aa(lp71
F0.0097608077977940459
aF0.18612568282718969
aF0.37918520809526557
ag3
(g4
(I0
tS'b'
tRp72
(I1
(I0
tg7
I00
S''
tbaF0
aa(lp73
F0.32718622363410349
aF0.43504266184206758
aF0.1741896557917342
ag3
(g4
(I0
tS'b'
tRp74
(I1
(I0
tg7
I00
S''
tbaF0.99402687904430065
aa(lp75
F0.29549905289950867
aF0.70545248854839449
aF0.085294827163372361
aF1
aF0
aa(lp76
F0.18828678400189419
aF0.42345489682938214
aF0.14462403024286224
ag3
(g4
(I0
tS'b'
tRp77
(I1
(I0
tg7
I00
S''
tbaF0
aa(lp78
F0.78883605295870252
aF0.10282713535593382
aF0.036069386118621864
ag3
(g4
(I0
tS'b'
tRp79
(I1
(I0
tg7
I00
S''
tbaF0
aa(lp80
F0.89479292042382752
aF0.72086423450538495
aF0.30731748265033404
ag3
(g4
(I0
tS'b'
tRp81
(I1
(I1
tg7
I00
S'\x01\x00\x00\x00'
tbaF0
aa(lp82
F0.86930013219944358
aF0.22660710546270788
aF0.0016312782745798776
ag3
(g4
(I0
tS'b'
tRp83
(I1
(I0
tg7
I00
S''
tbaF0.99900447984071672
aa(lp84
F0.86452270081490101
aF0.030027217219849606
aF0.20717411381860978
ag3
(g4
(I0
tS'b'
tRp85
(I1
(I0
tg7
I00
S''
tbaF0.99701343952215027
aa(lp86
F0.046402991259051715
aF0.37208493281064309
aF0.17824989933305502
aF1.3846153846153846
aF0
aa(lp87
F0.95881962668455634
aF0.28640964616482523
aF0.64221261506169691
ag3
(g4
(I0
tS'b'
tRp88
(I1
(I0
tg7
I00
S''
tbaF0
aa(lp89
F0.029295988634794105
aF0.20424514857585885
aF0.083848809385758685
aF1
aF0.99303135888501737
aa(lp90
F0.68170764191708921
aF0.38750796150531447
aF0.91479443384043857
aF1
aF0.99751119960179191
aa(lp91
F0.50928602434837511
aF0.33442652135271217
aF0.41574742468946158
ag3
(g4
(I0
tS'b'
tRp92
(I1
(I1
tg7
I00
S'\x01\x00\x00\x00'
tbaF0.99153807864609256
aa(lp93
F0.70362167281624277
aF0.22115659460192599
aF0.36117815765615352
ag3
(g4
(I0
tS'b'
tRp94
(I1
(I1
tg7
I00
S'\x01\x00\x00\x00'
tbaF0.99651567944250874
aa(lp95
F0.28296846944614351
aF0.1896663365422219
aF0.90660519285383434
ag3
(g4
(I0
tS'b'
tRp96
(I1
(I1
tg7
I00
S'\x01\x00\x00\x00'
tbaF0.99850671976107519
aa(lp97
F0.61701377241964439
aF0.27378310661754401
aF0.038914460945109433
ag3
(g4
(I0
tS'b'
tRp98
(I1
(I0
tg7
I00
S''
tbaF0.99303135888501737
aa(lp99
F0.085939503956117672
aF0.5100304594473245
aF0.15798392313287404
aF1
aF0.98257839721254359
aa(lp100
F0.39162235354472091
aF0.34004340362250818
aF0.41029466231481632
aF1
aF1
aa(lp101
F0.01186958623547286
aF0.37231838173606874
aF0.48615069487495238
aF1
aF0.99402687904430065
aa(lp102
F0.62907450523864961
aF0.24613418362319869
aF0.11476809166323193
aF1
aF0.9840716774514684
aa(lp103
F0.93820045973836352
aF0.21005843931417484
aF0.20833023082441279
ag3
(g4
(I0
tS'b'
tRp104
(I1
(I0
tg7
I00
S''
tbaF0
aa(lp105
F0.015110445729168722
aF0.314380718276632
aF0.24383083849761286
aF1
aF0.98855151816824294
aa(lp106
F0.75485635642548488
aF0.090182807646654733
aF0.41946081377877498
ag3
(g4
(I0
tS'b'
tRp107
(I1
(I0
tg7
I00
S''
tbaF0.97859631657541069
aa(lp108
F0.3379372940549713
aF0.2575106788457604
aF0.066963454687335347
aF1.2222222222222223
aF0.9880537580886013
aa(lp109
F0.018046703892977644
aF0.43687509773651501
aF0.19722059690103111
ag3
(g4
(I0
tS'b'
tRp110
(I1
(I0
tg7
I00
S''
tbaF0.99303135888501737
aa(lp111
F0.041475109015212799
aF0.29511884408979366
aF0.16313056082932237
aF1.1111111111111112
aF0.99402687904430065
aa(lp112
F0.75831549298553702
aF0.31356800800650297
aF0.040255761390193434
aF1
aF0
aa(lp113
F0.75675302381563114
aF0.29223734258641476
aF0.37414926976387114
ag3
(g4
(I0
tS'b'
tRp114
(I1
(I0
tg7
I00
S''
tbaF0
aa(lp115
F0.83447445788362506
aF0.1705085378640909
aF0
ag3
(g4
(I0
tS'b'
tRp116
(I1
(I1
tg7
I00
S'\x01\x00\x00\x00'
tbaF0.99552015928322546
aa(lp117
F0.54816400623507822
aF0.21652720549397914
aF0.2489415039864798
aF1.2
aF0.99701343952215027
aa(lp118
F0.39017210591740492
aF0.3765241589671412
aF0.42736825274394041
ag3
(g4
(I0
tS'b'
tRp119
(I1
(I0
tg7
I00
S''
tbaF0
aa(lp120
F0.64764655393539983
aF0.23681545721550151
aF0.42266187697663793
ag3
(g4
(I0
tS'b'
tRp121
(I1
(I0
tg7
I00
S''
tbaF0
aa(lp122
F0.12307126931197096
aF0.13705294272484453
aF0.11882409796663193
aF1.3999999999999999
aF0.99153807864609256
aa(lp123
F0.85114613957893492
aF0.40097813293624374
aF0.00041643755352836114
ag3
(g4
(I0
tS'b'
tRp124
(I1
(I0
tg7
I00
S''
tbaF0
aa(lp125
F0.62252496004419799
aF0.3298102018548047
aF0.33365549118094651
aF1
aF0.99054255848680939
aa(lp126
F0.26983978216688698
aF0.018747443246036818
aF0.024680458991979282
ag3
(g4
(I0
tS'b'
tRp127
(I1
(I0
tg7
I00
S''
tbaF0.9880537580886013
aa(lp128
F0.56925918983445478
aF0.37242385712537185
aF0.693532697257629
ag3
(g4
(I0
tS'b'
tRp129
(I1
(I0
tg7
I00
S''
tbaF0.99552015928322546
aa(lp130
F0.17706339653913694
aF0.42152245882743805
aF0.35564442038293775
ag3
(g4
(I0
tS'b'
tRp131
(I1
(I0
tg7
I00
S''
tbaF0
aa(lp132
F0.51553466782423396
aF0.16813605547475641
aF0.74484531896521688
ag3
(g4
(I0
tS'b'
tRp133
(I1
(I0
tg7
I00
S''
tbaF0.99402687904430065
aa(lp134
F0.002671119354393165
aF0.25530481702779023
aF0.24240373176235147
aF1
aF0
aa(lp135
F0.43590670073597598
aF0.29074934680770748
aF0.33583188911467615
aF1
aF0.99751119960179191
aa(lp136
F0.013071959906079201
aF0.66153687813293749
aF0.59552175995212087
aF1.9166666666666667
aF0.99552015928322546
aa(lp137
F0.50346160296758158
aF0.36930360166609444
aF0.12998835814220591
aF1.25
aF0
aa(lp138
F0.093243769854580619
aF0.32378546112674383
aF0.27724859015450842
ag3
(g4
(I0
tS'b'
tRp139
(I1
(I0
tg7
I00
S''
tbaF0
aa(lp140
F0.027050324579230876
aF0.12194955061046718
aF0.48104603219488667
ag3
(g4
(I0
tS'b'
tRp141
(I1
(I1
tg7
I00
S'\x01\x00\x00\x00'
tbaF0.97710303633648576
aa(lp142
F0.77514872437402582
aF0.3019290171332169
aF0.28842063009811525
ag3
(g4
(I0
tS'b'
tRp143
(I1
(I0
tg7
I00
S''
tbaF0.9960179193628671
aa(lp144
F0.53134187368047192
aF0.20330718116152668
aF0.27101190849747497
ag3
(g4
(I0
tS'b'
tRp145
(I1
(I0
tg7
I00
S''
tbaF0.99800895968143355
aa(lp146
F0.60521571200252555
aF0
aF0.016743233450920422
ag3
(g4
(I0
tS'b'
tRp147
(I1
(I0
tg7
I00
S''
tbaF0
aa(lp148
F0.81331884729977699
aF0.38026978710459725
aF0.06100175632661714
ag3
(g4
(I0
tS'b'
tRp149
(I1
(I1
tg7
I00
S'\x01\x00\x00\x00'
tbaF0
aa(lp150
F0.13304295495353288
aF0.1253162101553609
aF0.37384774593120607
ag3
(g4
(I0
tS'b'
tRp151
(I1
(I1
tg7
I00
S'\x01\x00\x00\x00'
tbaF0
aa(lp152
F0.24136510723939938
aF0.21697995532909403
aF0.27866257939205041
ag3
(g4
(I0
tS'b'
tRp153
(I1
(I0
tg7
I00
S''
tbaF0.99651567944250874
aa(lp154
F0.83581371717211583
aF0.23283824879801868
aF0.028883209153377838
ag3
(g4
(I0
tS'b'
tRp155
(I1
(I0
tg7
I00
S''
tbaF0.99054255848680939
aa(lp156
F0.34879565320337008
aF0.08669651374303261
aF0.025736147290588447
aF1.4285714285714286
aF0.99502239920358382
aa(lp157
F0.26631035299224559
aF0.41074178563986979
aF0.58641593593727459
aF1.8333333333333333
aF0.99800895968143355
aa(lp158
F0.77052790986760322
aF0.089917352469487136
aF0.28694119178127331
ag3
(g4
(I0
tS'b'
tRp159
(I1
(I0
tg7
I00
S''
tbaF0
aa(lp160
F0.007816045460823583
aF0.3935677220598337
aF0.2441756901742767
aF1.2857142857142858
aF0.99054255848680939
aa(lp161
F0
aF0.29449551616587349
aF0.095316357373126603
ag3
(g4
(I0
tS'b'
tRp162
(I1
(I0
tg7
I00
S''
tbaF0
aa(lp163
F0.39507902369724357
aF0.2400913283556734
aF0.22765873372780385
aF1
aF0
aa(lp164
F0.096146731516741968
aF0.11582694419888603
aF0.44488866279153944
ag3
(g4
(I0
tS'b'
tRp165
(I1
(I0
tg7
I00
S''
tbaF0
aa(lp166
F0.48910834434995365
aF0.3968555453401057
aF0.3755030948134499
ag3
(g4
(I0
tS'b'
tRp167
(I1
(I0
tg7
I00
S''
tbaF0
aa(lp168
F0.0044210354965371641
aF0.098678756073793603
aF0.20890136426671826
aF1
aF0.9960179193628671
aa(lp169
F0.26155141966417395
aF0.11456211641668231
aF0.58597148183922942
ag3
(g4
(I0
tS'b'
tRp170
(I1
(I1
tg7
I00
S'\x01\x00\x00\x00'
tbaF0
aa(lp171
F0.59774126398453065
aF0.1490064038445042
aF0.5817479407343763
ag3
(g4
(I0
tS'b'
tRp172
(I1
(I0
tg7
I00
S''
tbaF0
aa(lp173
F0.58086980327933546
aF0.38061623755550145
aF0.25211941383468012
ag3
(g4
(I0
tS'b'
tRp174
(I1
(I0
tg7
I00
S''
tbaF0
aa(lp175
F0.60436110179357161
aF0.28133240941178406
aF0.67578259022548437
ag3
(g4
(I0
tS'b'
tRp176
(I1
(I0
tg7
I00
S''
tbaF0.97610751617720259
aa(lp177
F0.27209777826009746
aF0.69498572949095361
aF0.0021683582925013534
ag3
(g4
(I0
tS'b'
tRp178
(I1
(I0
tg7
I00
S''
tbaF0
aa.