(lp1
(lp2
(lp3
cnumpy.core.multiarray
scalar
p4
(cnumpy
dtype
p5
(S'S18'
I0
I1
tRp6
(I3
S'|'
NNNI18
I1
I0
tbS'SOMZWCG12A8C13C480'
tRp7
ag4
(g5
(S'S6'
I0
I1
tRp8
(I3
S'|'
NNNI6
I1
I0
tbS'Casual'
tRp9
ag4
(g5
(S'S16'
I0
I1
tRp10
(I3
S'|'
NNNI16
I1
I0
tbS"I Didn't Mean To"
tRp11
aa(lp12
F0.39962299712066179
aF0.27782738263084777
aF0.0087675706375124236
aF0.6215558488698234
aF0.28754244376797533
aaa(lp13
(lp14
g4
(g5
(S'S18'
I0
I1
tRp15
(I3
S'|'
NNNI18
I1
I0
tbS'SOCIWDW12A8C13D406'
tRp16
ag4
(g5
(S'S12'
I0
I1
tRp17
(I3
S'|'
NNNI12
I1
I0
tbS'The Box Tops'
tRp18
ag4
(g5
(S'S9'
I0
I1
tRp19
(I3
S'|'
NNNI9
I1
I0
tbS'Soul Deep'
tRp20
aa(lp21
F0.41503352986643677
aF0.14320436236104012
aF0.0052534431350276869
aF0.67740471869328489
aF0.13282178009831294
aaa(lp22
(lp23
g4
(g5
(S'S18'
I0
I1
tRp24
(I3
S'|'
NNNI18
I1
I0
tbS'SOXVLOJ12AB0189215'
tRp25
ag4
(g5
(S'S16'
I0
I1
tRp26
(I3
S'|'
NNNI16
I1
I0
tbS'Sonora Santanera'
tRp27
ag4
(g5
(S'S15'
I0
I1
tRp28
(I3
S'|'
NNNI15
I1
I0
tbS'Amor De Cabaret'
tRp29
aa(lp30
F0.34139979235376133
aF0.19910713922894197
aF0.010009938946471673
aF0.68375680580762244
aF0.19849551404225088
aaa(lp31
(lp32
g4
(g5
(S'S18'
I0
I1
tRp33
(I3
S'|'
NNNI18
I1
I0
tbS'SOFSOCN12A8C143F5D'
tRp34
ag4
(g5
(S'S3'
I0
I1
tRp35
(I3
S'|'
NNNI3
I1
I0
tbS'Gob'
tRp36
ag4
(g5
(S'S14'
I0
I1
tRp37
(I3
S'|'
NNNI14
I1
I0
tbS'Face the Ashes'
tRp38
aa(lp39
F0.39935075690216659
aF0.26011905772375671
aF0.0023427516683231578
aF0.8977478963867348
aF0.24890285963096362
aaa(lp40
(lp41
g4
(g5
(S'S18'
I0
I1
tRp42
(I3
S'|'
NNNI18
I1
I0
tbS'SOYMRWW12A6D4FAB14'
tRp43
ag4
(g5
(S'S21'
I0
I1
tRp44
(I3
S'|'
NNNI21
I1
I0
tbS'Jeff And Sheri Easter'
tRp45
ag4
(g5
(S'S43'
I0
I1
tRp46
(I3
S'|'
NNNI43
I1
I0
tbS'The Moon And I (Ordinary Day Album Version)'
tRp47
aa(lp48
F0.38319362706969978
aF0.37043650384489202
aF0.080363481470964074
aF0.69885332453390525
aF0.35502851228147908
aaa(lp49
(lp50
g4
(g5
(S'S18'
I0
I1
tRp51
(I3
S'|'
NNNI18
I1
I0
tbS'SOMJBYD12A6D4F8557'
tRp52
ag4
(g5
(S'S7'
I0
I1
tRp53
(I3
S'|'
NNNI7
I1
I0
tbS'Rated R'
tRp54
ag4
(g5
(S'S21'
I0
I1
tRp55
(I3
S'|'
NNNI21
I1
I0
tbS'Keepin It Real (Skit)'
tRp56
aa(lp57
F0.26039392554046503
aF0.080059536457364314
aF0.0034076387902882295
aF0.36974096683715552
aF0.088643976517949558
aaa(lp58
(lp59
g4
(g5
(S'S18'
I0
I1
tRp60
(I3
S'|'
NNNI18
I1
I0
tbS'SOHKNRJ12A6701D1F8'
tRp61
ag4
(g5
(S'S21'
I0
I1
tRp62
(I3
S'|'
NNNI21
I1
I0
tbS'Tweeterfriendly Music'
tRp63
ag4
(g5
(S'S12'
I0
I1
tRp64
(I3
S'|'
NNNI12
I1
I0
tbS'Drop of Rain'
tRp65
aa(lp66
F0.60193048524015857
aF0.22207342032215568
aF0.011323299730228597
aF0.60320079194852327
aF0.21514645725831402
aaa(lp67
(lp68
g4
(g5
(S'S18'
I0
I1
tRp69
(I3
S'|'
NNNI18
I1
I0
tbS'SOIAZJW12AB01853F1'
tRp70
ag4
(g5
(S'S16'
I0
I1
tRp71
(I3
S'|'
NNNI16
I1
I0
tbS'Planet P Project'
tRp72
ag4
(g5
(S'S10'
I0
I1
tRp73
(I3
S'|'
NNNI10
I1
I0
tbS'Pink World'
tRp74
aa(lp75
F0.33031303777420723
aF0.37445436402255272
aF0.18813005821382933
aF0.52672826266292683
aF0.36404244185824447
aaa(lp76
(lp77
g4
(g5
(S'S18'
I0
I1
tRp78
(I3
S'|'
NNNI18
I1
I0
tbS'SOUDSGM12AC9618304'
tRp79
ag4
(g5
(S'S3'
I0
I1
tRp80
(I3
S'|'
NNNI3
I1
I0
tbS'Clp'
tRp81
ag4
(g5
(S'S33'
I0
I1
tRp82
(I3
S'|'
NNNI33
I1
I0
tbS'Insatiable (Instrumental Version)'
tRp83
aa(lp84
F0.42020877479567248
aF0.36795634980539793
aF0.002981683941502201
aF0.80716878402903813
aF0.36930756979111362
aaa(lp85
(lp86
g4
(g5
(S'S18'
I0
I1
tRp87
(I3
S'|'
NNNI18
I1
I0
tbS'SOQHXMF12AB0182363'
tRp88
ag4
(g5
(S'S12'
I0
I1
tRp89
(I3
S'|'
NNNI12
I1
I0
tbS'JennyAnyKind'
tRp90
ag4
(g5
(S'S15'
I0
I1
tRp91
(I3
S'|'
NNNI15
I1
I0
tbS'Young Boy Blues'
tRp92
aa(lp93
F0.29451893283950487
aF0.27752977250114302
aF0.075429504472525916
aF0.67006269592476475
aF0.26477845212495749
aaa(lp94
(lp95
g4
(g5
(S'S18'
I0
I1
tRp96
(I3
S'|'
NNNI18
I1
I0
tbS'SOKEJEJ12A8C13E0D0'
tRp97
ag4
(g5
(S'S12'
I0
I1
tRp98
(I3
S'|'
NNNI12
I1
I0
tbS'Wayne Watson'
tRp99
ag4
(g5
(S'S24'
I0
I1
tRp100
(I3
S'|'
NNNI24
I1
I0
tbS'The Urgency (LP Version)'
tRp101
aa(lp102
F0.3494792672775886
aF0.32772818748272264
aF0.012672156751384353
aF0.77219105758125706
aF0.30386682300996498
aaa(lp103
(lp104
g4
(g5
(S'S18'
I0
I1
tRp105
(I3
S'|'
NNNI18
I1
I0
tbS'SORAMLE12AB017C8B0'
tRp106
ag4
(g5
(S'S9'
I0
I1
tRp107
(I3
S'|'
NNNI9
I1
I0
tbS'Bob Azzam'
tRp108
ag4
(g5
(S'S14'
I0
I1
tRp109
(I3
S'|'
NNNI14
I1
I0
tbS'Auguri Cha Cha'
tRp110
aa(lp111
F0.25044836907993029
aF0.22638889062952108
aF0.013488570211557575
aF0.76373535720178187
aF0.22928037522391595
aaa(lp112
(lp113
g4
(g5
(S'S18'
I0
I1
tRp114
(I3
S'|'
NNNI18
I1
I0
tbS'SOBONFF12A6D4F84D8'
tRp115
ag4
(g5
(S'S13'
I0
I1
tRp116
(I3
S'|'
NNNI13
I1
I0
tbS'Lionel Richie'
tRp117
ag4
(g5
(S'S23'
I0
I1
tRp118
(I3
S'|'
NNNI23
I1
I0
tbS'Tonight Will Be Alright'
tRp119
aa(lp120
F0.54980506846342247
aF0.44578372484075973
aF0.02172369728808746
aF0.73915195512291698
aF0.43597818323485488
aaa(lp121
(lp122
g4
(g5
(S'S18'
I0
I1
tRp123
(I3
S'|'
NNNI18
I1
I0
tbS'SOUQQEA12A8C134B1B'
tRp124
ag4
(g5
(S'S15'
I0
I1
tRp125
(I3
S'|'
NNNI15
I1
I0
tbS'Richard Souther'
tRp126
ag4
(g5
(S'S9'
I0
I1
tRp127
(I3
S'|'
NNNI9
I1
I0
tbS'High Tide'
tRp128
aa(lp129
F0.32885232752158683
aF0.29618056429827644
aF0.0079156609399403666
aF0.4189077709948853
aF0.28466638911911751
aaa(lp130
(lp131
g4
(g5
(S'S18'
I0
I1
tRp132
(I3
S'|'
NNNI18
I1
I0
tbS'SOILPQQ12AB017E82A'
tRp133
ag4
(g5
(S'S13'
I0
I1
tRp134
(I3
S'|'
NNNI13
I1
I0
tbS'Faiz Ali Faiz'
tRp135
ag4
(g5
(S'S20'
I0
I1
tRp136
(I3
S'|'
NNNI20
I1
I0
tbS'Sohna Nee Sohna Data'
tRp137
aa(lp138
F0.30486459841444558
aF1
aF0.042347011216811017
aF0.75210361326513775
aF1
aaa(lp139
(lp140
g4
(g5
(S'S18'
I0
I1
tRp141
(I3
S'|'
NNNI18
I1
I0
tbS'SOXLBJT12A8C140925'
tRp142
ag4
(g5
(S'S5'
I0
I1
tRp143
(I3
S'|'
NNNI5
I1
I0
tbS'Tesla'
tRp144
ag4
(g5
(S'S17'
I0
I1
tRp145
(I3
S'|'
NNNI17
I1
I0
tbS'Caught In A Dream'
tRp146
aa(lp147
F0.51043033005868077
aF0.4133432522784844
aF0.0051469544228311794
aF0.86598746081504696
aF0.41486992823231494
aaa(lp148
(lp149
g4
(g5
(S'S18'
I0
I1
tRp150
(I3
S'|'
NNNI18
I1
I0
tbS'SOWTBJW12AC468AC6E'
tRp151
ag4
(g5
(S'S12'
I0
I1
tRp152
(I3
S'|'
NNNI12
I1
I0
tbS'Jimmy Wakely'
tRp153
ag4
(g5
(S'S26'
I0
I1
tRp154
(I3
S'|'
NNNI26
I1
I0
tbS'Broken-Down Merry-Go-Round'
tRp155
aa(lp156
F0.28981764053563214
aF0.15044643038552905
aF0.10034786312650859
aF0.4555766375185612
aF0.14864199039787335
aaa(lp157
(lp158
g4
(g5
(S'S18'
I0
I1
tRp159
(I3
S'|'
NNNI18
I1
I0
tbS'SOBEBDG12A58A76D60'
tRp160
ag4
(g5
(S'S12'
I0
I1
tRp161
(I3
S'|'
NNNI12
I1
I0
tbS'Alice Stuart'
tRp162
ag4
(g5
(S'S12'
I0
I1
tRp163
(I3
S'|'
NNNI12
I1
I0
tbS'Kassie Jones'
tRp164
aa(lp165
F0.32661229587552698
aF0.2813492195960956
aF0.0073122249041601582
aF0.7322224055436396
aF0.26600831878755005
aaa(lp166
(lp167
g4
(g5
(S'S18'
I0
I1
tRp168
(I3
S'|'
NNNI18
I1
I0
tbS'SOBBUGU12A8C13E95D'
tRp169
ag4
(g5
(S'S25'
I0
I1
tRp170
(I3
S'|'
NNNI25
I1
I0
tbS'The Dillinger Escape Plan'
tRp171
ag4
(g5
(S'S31'
I0
I1
tRp172
(I3
S'|'
NNNI31
I1
I0
tbS'Setting Fire to Sleeping Giants'
tRp173
aa(lp174
F0.53868810564965375
aF0.25664683827072204
aF0.0021652704813289792
aF0.90752351097178685
aF0.26035551549364633
aaa(lp175
(lp176
g4
(g5
(S'S18'
I0
I1
tRp177
(I3
S'|'
NNNI18
I1
I0
tbS'SONYPOM12A8C13B2D7'
tRp178
ag4
(g5
(S'S10'
I0
I1
tRp179
(I3
S'|'
NNNI10
I1
I0
tbS'Tim Wilson'
tRp180
ag4
(g5
(S'S51'
I0
I1
tRp181
(I3
S'|'
NNNI51
I1
I0
tbS'I Think My Wife Is Running Around On Me (Taco Hell)'
tRp182
aa(lp183
F0.34784572422372378
aF0.21622024387662364
aF0.038442425102939083
aF0.89712918660287078
aF0.20453599269718928
aaa(lp184
(lp185
g4
(g5
(S'S18'
I0
I1
tRp186
(I3
S'|'
NNNI18
I1
I0
tbS'SOBZBAZ12A6D4F8742'
tRp187
ag4
(g5
(S'S11'
I0
I1
tRp188
(I3
S'|'
NNNI11
I1
I0
tbS'Willie Bobo'
tRp189
ag4
(g5
(S'S14'
I0
I1
tRp190
(I3
S'|'
NNNI14
I1
I0
tbS'Spanish Grease'
tRp191
aa(lp192
F0.37742845770384131
aF0.18159722740455905
aF0.0070992474797671448
aF0.68676786008909418
aF0.17860757704809083
aaa(lp193
(lp194
g4
(g5
(S'S18'
I0
I1
tRp195
(I3
S'|'
NNNI18
I1
I0
tbS'SOVYKGO12AB0187199'
tRp196
ag4
(g5
(S'S10'
I0
I1
tRp197
(I3
S'|'
NNNI10
I1
I0
tbS'Faye Adams'
tRp198
ag4
(g5
(S'S20'
I0
I1
tRp199
(I3
S'|'
NNNI20
I1
I0
tbS'Crazy Mixed Up World'
tRp200
aa(lp201
F0.29746285377941245
aF0.1590773899889748
aF0.019948885418145677
aF0.33884672496287743
aF0.15711164668451627
aaa(lp202
(lp203
g4
(g5
(S'S18'
I0
I1
tRp204
(I3
S'|'
NNNI18
I1
I0
tbS'SOGNCJP12A58A80271'
tRp205
ag4
(g5
(S'S13'
I0
I1
tRp206
(I3
S'|'
NNNI13
I1
I0
tbS'Terry Callier'
tRp207
ag4
(g5
(S'S28'
I0
I1
tRp208
(I3
S'|'
NNNI28
I1
I0
tbS'Do You Finally Need A Friend'
tRp209
aa(lp210
F0.4137147854565224
aF0.51259920226889322
aF0.0022362629561266507
aF0.59095033822801513
aF0.50567572006401418
aaa(lp211
(lp212
g4
(g5
(S'S18'
I0
I1
tRp213
(I3
S'|'
NNNI18
I1
I0
tbS'SOLLHMX12AB01846DC'
tRp214
ag4
(g5
(S'S11'
I0
I1
tRp215
(I3
S'|'
NNNI11
I1
I0
tbS'John Wesley'
tRp216
ag4
(g5
(S'S17'
I0
I1
tRp217
(I3
S'|'
NNNI17
I1
I0
tbS'The Emperor Falls'
tRp218
aa(lp219
F0.4501149092855275
aF0.78234126602092124
aF1
aF0.4508744431611944
aF0.78680528766275681
aaa(lp220
(lp221
g4
(g5
(S'S18'
I0
I1
tRp222
(I3
S'|'
NNNI18
I1
I0
tbS'SOJXVAH12A8C139700'
tRp223
ag4
(g5
(S'S16'
I0
I1
tRp224
(I3
S'|'
NNNI16
I1
I0
tbS'Butthole Surfers'
tRp225
ag4
(g5
(S'S29'
I0
I1
tRp226
(I3
S'|'
NNNI29
I1
I0
tbS'Barking Dogs (From "Piouhgd")'
tRp227
aa(lp228
F0.4851371731196179
aF0.71820435571498986
aF0.016576742865256282
aF0.70957762745421527
aF0.68318520187764731
aaa(lp229
(lp230
g4
(g5
(S'S18'
I0
I1
tRp231
(I3
S'|'
NNNI18
I1
I0
tbS'SOVXMTN12A8C135A18'
tRp232
ag4
(g5
(S'S13'
I0
I1
tRp233
(I3
S'|'
NNNI13
I1
I0
tbS'Despina Vandi'
tRp234
ag4
(g5
(S'S18'
I0
I1
tRp235
(I3
S'|'
NNNI18
I1
I0
tbS'OUTE ENA EFHARISTO'
tRp236
aa(lp237
F0.40925716762899433
aF0.43764880743844176
aF0.0023782479057219935
aF0.71716713413628119
aF0.43246427848459035
aaa(lp238
(lp239
g4
(g5
(S'S18'
I0
I1
tRp240
(I3
S'|'
NNNI18
I1
I0
tbS'SOOGFBZ12AC3DF7FF2'
tRp241
ag4
(g5
(S'S11'
I0
I1
tRp242
(I3
S'|'
NNNI11
I1
I0
tbS'Jacob Young'
tRp243
ag4
(g5
(S'S15'
I0
I1
tRp244
(I3
S'|'
NNNI15
I1
I0
tbS'In A Subtle Way'
tRp245
aa(lp246
F0.29311955546812207
aF0.7285714345393105
aF0.0085545932131194085
aF0.27998680085794408
aF0.73133142614879854
aaa(lp247
(lp248
g4
(g5
(S'S18'
I0
I1
tRp249
(I3
S'|'
NNNI18
I1
I0
tbS'SONQBUB12A6D4F8ED0'
tRp250
ag4
(g5
(S'S18'
I0
I1
tRp251
(I3
S'|'
NNNI18
I1
I0
tbS'The Rolling Stones'
tRp252
ag4
(g5
(S'S29'
I0
I1
tRp253
(I3
S'|'
NNNI29
I1
I0
tbS'Angie (1993 Digital Remaster)'
tRp254
aa(lp255
F0.73141962245538328
aF0.37762897334588263
aF0.0060698565952009087
aF0.6561623494472858
aF0.37319769151735749
aaa(lp256
(lp257
g4
(g5
(S'S18'
I0
I1
tRp258
(I3
S'|'
NNNI18
I1
I0
tbS'SOHGKJW12AC468A8BD'
tRp259
ag4
(g5
(S'S14'
I0
I1
tRp260
(I3
S'|'
NNNI14
I1
I0
tbS'Roberto Torres'
tRp261
ag4
(g5
(S'S13'
I0
I1
tRp262
(I3
S'|'
NNNI13
I1
I0
tbS'Sabor Guajiro'
tRp263
aa(lp264
F0.34801071119168769
aF0.29250993176253365
aF0.011039329831037909
aF0.55890117142385742
aF0.28864626819496059
aaa(lp265
(lp266
g4
(g5
(S'S18'
I0
I1
tRp267
(I3
S'|'
NNNI18
I1
I0
tbS'SOINBCU12A6D4F94C0'
tRp268
ag4
(g5
(S'S21'
I0
I1
tRp269
(I3
S'|'
NNNI21
I1
I0
tbS'Loudon Wainwright III'
tRp270
ag4
(g5
(S'S16'
I0
I1
tRp271
(I3
S'|'
NNNI16
I1
I0
tbS'Human Cannonball'
tRp272
aa(lp273
F0.44015048284492381
aF0.22380952055431555
aF0.009158029248899616
aF0.43734532255403391
aF0.20751899227322901
aaa(lp274
(lp275
g4
(g5
(S'S18'
I0
I1
tRp276
(I3
S'|'
NNNI18
I1
I0
tbS'SOTWVQT12A58A79650'
tRp277
ag4
(g5
(S'S13'
I0
I1
tRp278
(I3
S'|'
NNNI13
I1
I0
tbS'R.L. Burnside'
tRp279
ag4
(g5
(S'S8'
I0
I1
tRp280
(I3
S'|'
NNNI8
I1
I0
tbS'Glory Be'
tRp281
aa(lp282
F0.46387257386046837
aF0.38958333784315313
aF0.0085190969757205724
aF0.79698069625474344
aF0.38020449397861855
aaa(lp283
(lp284
g4
(g5
(S'S18'
I0
I1
tRp285
(I3
S'|'
NNNI18
I1
I0
tbS'SOTSEJY12AB0180F56'
tRp286
ag4
(g5
(S'S18'
I0
I1
tRp287
(I3
S'|'
NNNI18
I1
I0
tbS'Stevie Ray Vaughan'
tRp288
ag4
(g5
(S'S9'
I0
I1
tRp289
(I3
S'|'
NNNI9
I1
I0
tbS'Crossfire'
tRp290
aa(lp291
F0.54104264872573571
aF0.33452381182958213
aF0.0064958114439869373
aF0.76146675466094693
aF0.33959788707379579
aaa(lp292
(lp293
g4
(g5
(S'S18'
I0
I1
tRp294
(I3
S'|'
NNNI18
I1
I0
tbS'SOTUNMH12A6D4FA3E6'
tRp295
ag4
(g5
(S'S33'
I0
I1
tRp296
(I3
S'|'
NNNI33
I1
I0
tbS'Casiotone For The Painfully Alone'
tRp297
ag4
(g5
(S'S19'
I0
I1
tRp298
(I3
S'|'
NNNI19
I1
I0
tbS'Nashville Parthenon'
tRp299
aa(lp300
F0.39188861012161147
aF0.19578373433511717
aF0.026054238250745421
aF0.6325688830226035
aF0.19161093435491205
aaa(lp301
(lp302
g4
(g5
(S'S18'
I0
I1
tRp303
(I3
S'|'
NNNI18
I1
I0
tbS'SOEPPKB12AB018418B'
tRp304
ag4
(g5
(S'S5'
I0
I1
tRp305
(I3
S'|'
NNNI5
I1
I0
tbS'Ec8or'
tRp306
ag4
(g5
(S'S12'
I0
I1
tRp307
(I3
S'|'
NNNI12
I1
I0
tbS'Cocain Ducks'
tRp308
aa(lp309
F0.33260105596802636
aF0.27460317478401952
aF0.036987079369586826
aF0.69184128031677927
aF0.27716114690795485
aaa(lp310
(lp311
g4
(g5
(S'S18'
I0
I1
tRp312
(I3
S'|'
NNNI18
I1
I0
tbS'SOGKIWV12A6D4F86C4'
tRp313
ag4
(g5
(S'S18'
I0
I1
tRp314
(I3
S'|'
NNNI18
I1
I0
tbS'The New York Dolls'
tRp315
ag4
(g5
(S'S11'
I0
I1
tRp316
(I3
S'|'
NNNI11
I1
I0
tbS'Human Being'
tRp317
aa(lp318
F0.47647724775386607
aF0.51542658395030516
aF0.0024137441431208292
aF0.70174063685860411
aF0.50925646539376734
aaa(lp319
(lp320
g4
(g5
(S'S18'
I0
I1
tRp321
(I3
S'|'
NNNI18
I1
I0
tbS'SOPHYIS12AAF3B35A3'
tRp322
ag4
(g5
(S'S12'
I0
I1
tRp323
(I3
S'|'
NNNI12
I1
I0
tbS'Eliane Elias'
tRp324
ag4
(g5
(S'S18'
I0
I1
tRp325
(I3
S'|'
NNNI18
I1
I0
tbS'The More I See You'
tRp326
aa(lp327
F0.42538661420375423
aF0.33953373742078341
aF0.0025202328553173359
aF0.58806302590331616
aF0.32318947967473466
aaa(lp328
(lp329
g4
(g5
(S'S18'
I0
I1
tRp330
(I3
S'|'
NNNI18
I1
I0
tbS'SOFHBAR12A6701D0FE'
tRp331
ag4
(g5
(S'S9'
I0
I1
tRp332
(I3
S'|'
NNNI9
I1
I0
tbS'Lost Boyz'
tRp333
ag4
(g5
(S'S20'
I0
I1
tRp334
(I3
S'|'
NNNI20
I1
I0
tbS'Certain Things We Do'
tRp335
aa(lp336
F0.40980554990997903
aF0.37440476549905433
aF0.0077381797529461876
aF0.62790793598416095
aF0.36103652551209431
aaa(lp337
(lp338
g4
(g5
(S'S18'
I0
I1
tRp339
(I3
S'|'
NNNI18
I1
I0
tbS'SODHVES12A6701CE6B'
tRp340
ag4
(g5
(S'S9'
I0
I1
tRp341
(I3
S'|'
NNNI9
I1
I0
tbS'Chris Rea'
tRp342
ag4
(g5
(S'S26'
I0
I1
tRp343
(I3
S'|'
NNNI26
I1
I0
tbS'Driving Home For Christmas'
tRp344
aa(lp345
F0.49773382347981376
aF0.32003969476931926
aF0.019487434331960814
aF0.73152120112192709
aF0.30933247268130037
aaa(lp346
(lp347
g4
(g5
(S'S18'
I0
I1
tRp348
(I3
S'|'
NNNI18
I1
I0
tbS'SOXIATP12AAF3B2184'
tRp349
ag4
(g5
(S'S19'
I0
I1
tRp350
(I3
S'|'
NNNI19
I1
I0
tbS'Perrey And Kingsley'
tRp351
ag4
(g5
(S'S15'
I0
I1
tRp352
(I3
S'|'
NNNI15
I1
I0
tbS'Spooks In Space'
tRp353
aa(lp354
F0.33641584697390081
aF0.094990078206541706
aF0.035141275024847367
aF0.73110872793268433
aF0.078799314024681363
aaa(lp355
(lp356
g4
(g5
(S'S18'
I0
I1
tRp357
(I3
S'|'
NNNI18
I1
I0
tbS'SOGNQWU12A8AE4868F'
tRp358
ag4
(g5
(S'S10'
I0
I1
tRp359
(I3
S'|'
NNNI10
I1
I0
tbS'Eurythmics'
tRp360
ag4
(g5
(S'S31'
I0
I1
tRp361
(I3
S'|'
NNNI31
I1
I0
tbS'Tous Les Gar\xc3\xa7ons Et Les Filles'
tRp362
aa(lp363
F0.52060565667756797
aF0.2553075452152635
aF0.091686781201192682
aF0.8099736017158885
aF0.25665254738997084
aaa(lp364
(lp365
g4
(g5
(S'S18'
I0
I1
tRp366
(I3
S'|'
NNNI18
I1
I0
tbS'SOMZCVH12AB0182B8E'
tRp367
ag4
(g5
(S'S13'
I0
I1
tRp368
(I3
S'|'
NNNI13
I1
I0
tbS'Suzanne Ciani'
tRp369
ag4
(g5
(S'S6'
I0
I1
tRp370
(I3
S'|'
NNNI6
I1
I0
tbS'Stream'
tRp371
aa(lp372
F0.3784557645560902
aF0.31706349852869742
aF0.011039329831037909
aF0.19443986140900835
aF0.32110596332552888
aaa(lp373
(lp374
g4
(g5
(S'S18'
I0
I1
tRp375
(I3
S'|'
NNNI18
I1
I0
tbS'SONXJBL12AAF3B2C0C'
tRp376
ag4
(g5
(S'S13'
I0
I1
tRp377
(I3
S'|'
NNNI13
I1
I0
tbS'Vickie Winans'
tRp378
ag4
(g5
(S'S12'
I0
I1
tRp379
(I3
S'|'
NNNI12
I1
I0
tbS'Make Me Over'
tRp380
aa(lp381
F0.3945116942692542
aF0.29682540206989905
aF0.011997728240806475
aF0.72512786668866513
aF0.28876849096888285
aaa(lp382
(lp383
g4
(g5
(S'S18'
I0
I1
tRp384
(I3
S'|'
NNNI18
I1
I0
tbS'SOYWZTU12AB0180E26'
tRp385
ag4
(g5
(S'S13'
I0
I1
tRp386
(I3
S'|'
NNNI13
I1
I0
tbS'The Berzerker'
tRp387
ag4
(g5
(S'S13'
I0
I1
tRp388
(I3
S'|'
NNNI13
I1
I0
tbS'Deform (live)'
tRp389
aa(lp390
F0.45485119949462399
aF0.17658730181335774
aF0.077062331392872344
aF0.8267612605180662
aF0.18572323416737649
aaa(lp391
(lp392
g4
(g5
(S'S18'
I0
I1
tRp393
(I3
S'|'
NNNI18
I1
I0
tbS'SOLGHDZ12AB0183B11'
tRp394
ag4
(g5
(S'S13'
I0
I1
tRp395
(I3
S'|'
NNNI13
I1
I0
tbS'Kings Of Leon'
tRp396
ag4
(g5
(S'S12'
I0
I1
tRp397
(I3
S'|'
NNNI12
I1
I0
tbS'Wicker Chair'
tRp398
aa(lp399
F0.78414656298125385
aF0.21894840952232408
aF0.011642765866818118
aF0.83975416597921126
aF0.21384975001623271
aaa(lp400
(lp401
g4
(g5
(S'S18'
I0
I1
tRp402
(I3
S'|'
NNNI18
I1
I0
tbS'SOTNTNJ12AAA15FBD6'
tRp403
ag4
(g5
(S'S11'
I0
I1
tRp404
(I3
S'|'
NNNI11
I1
I0
tbS'Edith Lefel'
tRp405
ag4
(g5
(S'S12'
I0
I1
tRp406
(I3
S'|'
NNNI12
I1
I0
tbS"An ti chans'"
tRp407
aa(lp408
F0.2982741554893189
aF0.38715278232715744
aF0.010613374982251881
aF0.89209701369410987
aF0.36970670353720347
aaa(lp409
(lp410
g4
(g5
(S'S18'
I0
I1
tRp411
(I3
S'|'
NNNI18
I1
I0
tbS'SOPIKEG12A58291636'
tRp412
ag4
(g5
(S'S4'
I0
I1
tRp413
(I3
S'|'
NNNI4
I1
I0
tbS'NOFX'
tRp414
ag4
(g5
(S'S17'
I0
I1
tRp415
(I3
S'|'
NNNI17
I1
I0
tbS'Stickin In My Eye'
tRp416
aa(lp417
F0.55101736260375378
aF0.13650793506117725
aF0.0084126082635240657
aF0.76220920640158385
aF0.13691242356302302
aaa(lp418
(lp419
g4
(g5
(S'S18'
I0
I1
tRp420
(I3
S'|'
NNNI18
I1
I0
tbS'SOSBDSF12AB0189007'
tRp421
ag4
(g5
(S'S11'
I0
I1
tRp422
(I3
S'|'
NNNI11
I1
I0
tbS'Soda Stereo'
tRp423
ag4
(g5
(S'S16'
I0
I1
tRp424
(I3
S'|'
NNNI16
I1
I0
tbS'Entre Can\xc3\xadbales'
tRp425
aa(lp426
F0.46406950731409446
aF0.33055555017541965
aF0.011429788442425103
aF0.68730407523510961
aF0.29731453648922723
aaa(lp427
(lp428
g4
(g5
(S'S18'
I0
I1
tRp429
(I3
S'|'
NNNI18
I1
I0
tbS'SOHMMMC12AB0181C42'
tRp430
ag4
(g5
(S'S9'
I0
I1
tRp431
(I3
S'|'
NNNI9
I1
I0
tbS'Xcultures'
tRp432
ag4
(g5
(S'S14'
I0
I1
tRp433
(I3
S'|'
NNNI14
I1
I0
tbS'Sudanese Dance'
tRp434
aa(lp435
F0.26470243270325089
aF0.3814980189643335
aF0.077275308817265367
aF0.82333773304735192
aF0.38295450639186907
aaa(lp436
(lp437
g4
(g5
(S'S18'
I0
I1
tRp438
(I3
S'|'
NNNI18
I1
I0
tbS'SOVJXVJ12A8C13517D'
tRp439
ag4
(g5
(S'S11'
I0
I1
tRp440
(I3
S'|'
NNNI11
I1
I0
tbS'White Heart'
tRp441
ag4
(g5
(S'S55'
I0
I1
tRp442
(I3
S'|'
NNNI55
I1
I0
tbS'Where The Thunder Roars (Tales Of Wonder Album Version)'
tRp443
aa(lp444
F0.33551367831205764
aF0.42956348855962201
aF0.6777296606559704
aF0.67101138426002316
aF0.42223194063028752
aaa(lp445
(lp446
g4
(g5
(S'S18'
I0
I1
tRp447
(I3
S'|'
NNNI18
I1
I0
tbS'SOFZCTA12AB0188D8F'
tRp448
ag4
(g5
(S'S17'
I0
I1
tRp449
(I3
S'|'
NNNI17
I1
I0
tbS'Heavy D / McGruff'
tRp450
ag4
(g5
(S'S17'
I0
I1
tRp451
(I3
S'|'
NNNI17
I1
I0
tbS'Wanna Be A Player'
tRp452
aa(lp453
F0.3615199708856629
aF0.1685516004467513
aF0.0058568791708078945
aF0.70553539019963685
aF0.17764125324176808
aaa(lp454
(lp455
g4
(g5
(S'S18'
I0
I1
tRp456
(I3
S'|'
NNNI18
I1
I0
tbS'SOKBBXO12A6701DEA0'
tRp457
ag4
(g5
(S'S15'
I0
I1
tRp458
(I3
S'|'
NNNI15
I1
I0
tbS'Nine Inch Nails'
tRp459
ag4
(g5
(S'S5'
I0
I1
tRp460
(I3
S'|'
NNNI5
I1
I0
tbS'Metal'
tRp461
aa(lp462
F0.59492348588364785
aF0.67271825619490688
aF0.010151923896067016
aF0.54920805147665397
aF0.63314261487985879
aaa(lp463
(lp464
g4
(g5
(S'S18'
I0
I1
tRp465
(I3
S'|'
NNNI18
I1
I0
tbS'SOWHYUG12A58A77FAB'
tRp466
ag4
(g5
(S'S25'
I0
I1
tRp467
(I3
S'|'
NNNI25
I1
I0
tbS'Nick Cave & The Bad Seeds'
tRp468
ag4
(g5
(S'S37'
I0
I1
tRp469
(I3
S'|'
NNNI37
I1
I0
tbS'She Fell Away (2009 Digital Remaster)'
tRp470
aa(lp471
F0.47657587793361611
aF0.37341270008551375
aF0.13804486724407211
aF0.59870483418577791
aF0.37131469690661795
aaa(lp472
(lp473
g4
(g5
(S'S18'
I0
I1
tRp474
(I3
S'|'
NNNI18
I1
I0
tbS'SOYSTDI12A6D4F6500'
tRp475
ag4
(g5
(S'S12'
I0
I1
tRp476
(I3
S'|'
NNNI12
I1
I0
tbS'Nadine Renee'
tRp477
ag4
(g5
(S'S9'
I0
I1
tRp478
(I3
S'|'
NNNI9
I1
I0
tbS'Next Time'
tRp479
aa(lp480
F0.13842487795898867
aF0.33571429032583083
aF0.022966065597046715
aF0.80733377330473521
aF0.32478601465909396
aaa(lp481
(lp482
g4
(g5
(S'S18'
I0
I1
tRp483
(I3
S'|'
NNNI18
I1
I0
tbS'SOOOROX12A6D4F8400'
tRp484
ag4
(g5
(S'S11'
I0
I1
tRp485
(I3
S'|'
NNNI11
I1
I0
tbS'Lesley Gore'
tRp486
ag4
(g5
(S'S13'
I0
I1
tRp487
(I3
S'|'
NNNI13
I1
I0
tbS"It's My Party"
tRp488
aa(lp489
F0.38680240953153333
aF0.12127976419358023
aF0.00812863836433338
aF0.70842270252433581
aF0.11775591348155394
aaa(lp490
(lp491
g4
(g5
(S'S18'
I0
I1
tRp492
(I3
S'|'
NNNI18
I1
I0
tbS'SONSPZE12AB01819CE'
tRp493
ag4
(g5
(S'S9'
I0
I1
tRp494
(I3
S'|'
NNNI9
I1
I0
tbS'Smartbomb'
tRp495
ag4
(g5
(S'S13'
I0
I1
tRp496
(I3
S'|'
NNNI13
I1
I0
tbS'Complicate It'
tRp497
aa(lp498
F0.32058022885557497
aF0.30505953550792864
aF0.013701547635950589
aF0.97376670516416419
aF0.31092900766565956
aaa(lp499
(lp500
g4
(g5
(S'S18'
I0
I1
tRp501
(I3
S'|'
NNNI18
I1
I0
tbS'SOHWGFU12AB017B036'
tRp502
ag4
(g5
(S'S7'
I0
I1
tRp503
(I3
S'|'
NNNI7
I1
I0
tbS'Suburbs'
tRp504
ag4
(g5
(S'S12'
I0
I1
tRp505
(I3
S'|'
NNNI12
I1
I0
tbS'Monde De Fou'
tRp506
aa(lp507
F0.33366918822810399
aF0.21765873397907878
aF0.0037980974016754224
aF0.9010889292196006
aF0.21056692269791497
aaa(lp508
(lp509
g4
(g5
(S'S18'
I0
I1
tRp510
(I3
S'|'
NNNI18
I1
I0
tbS'SODRHHD12AB0189F2A'
tRp511
ag4
(g5
(S'S12'
I0
I1
tRp512
(I3
S'|'
NNNI12
I1
I0
tbS'Julien Clerc'
tRp513
ag4
(g5
(S'S18'
I0
I1
tRp514
(I3
S'|'
NNNI18
I1
I0
tbS'This Melody (Live)'
tRp515
aa(lp516
F0.36223255098262863
aF0.37981151725567192
aF0.098502058781769125
aF0.67216630918990261
aF0.39011026785884789
aaa(lp517
(lp518
g4
(g5
(S'S18'
I0
I1
tRp519
(I3
S'|'
NNNI18
I1
I0
tbS'SOQGFVO12A8C13C8C3'
tRp520
ag4
(g5
(S'S13'
I0
I1
tRp521
(I3
S'|'
NNNI13
I1
I0
tbS'Glen Campbell'
tRp522
ag4
(g5
(S'S18'
I0
I1
tRp523
(I3
S'|'
NNNI18
I1
I0
tbS"I'm Gone This Time"
tRp524
aa(lp525
F0.47818289274305464
aF0.13318453016735252
aF0.0077381797529461876
aF0.61586371885827407
aF0.1282976277323474
aaa(lp526
(lp527
g4
(g5
(S'S18'
I0
I1
tRp528
(I3
S'|'
NNNI18
I1
I0
tbS'SORABMD12A8C136672'
tRp529
ag4
(g5
(S'S13'
I0
I1
tRp530
(I3
S'|'
NNNI13
I1
I0
tbS'T.G. Sheppard'
tRp531
ag4
(g5
(S'S22'
I0
I1
tRp532
(I3
S'|'
NNNI22
I1
I0
tbS'You Feel Good All Over'
tRp533
aa(lp534
F0.34125416117944202
aF0.23070436093688654
aF0.0031591651284963791
aF0.44072760270582406
aF0.21840445807567885
aaa(lp535
(lp536
g4
(g5
(S'S18'
I0
I1
tRp537
(I3
S'|'
NNNI18
I1
I0
tbS'SOTUBVH12AB018D2EC'
tRp538
ag4
(g5
(S'S12'
I0
I1
tRp539
(I3
S'|'
NNNI12
I1
I0
tbS'Slim Whitman'
tRp540
ag4
(g5
(S'S16'
I0
I1
tRp541
(I3
S'|'
NNNI16
I1
I0
tbS'Indian Love Call'
tRp542
aa(lp543
F0.38438508859607656
aF0.23412698186642286
aF0.0058568791708078945
aF0.58925919815212002
aF0.23627571930012181
aaa(lp544
(lp545
g4
(g5
(S'S18'
I0
I1
tRp546
(I3
S'|'
NNNI18
I1
I0
tbS'SOKLLOH12A67020F2C'
tRp547
ag4
(g5
(S'S23'
I0
I1
tRp548
(I3
S'|'
NNNI23
I1
I0
tbS'Queens Of The Stone Age'
tRp549
ag4
(g5
(S'S12'
I0
I1
tRp550
(I3
S'|'
NNNI12
I1
I0
tbS'I Never Came'
tRp551
aa(lp552
F0.54915031305275064
aF0.40977183577845322
aF0.0040110748260684366
aF0.74661771984820979
aF0.40259799783818462
aaa(lp553
(lp554
g4
(g5
(S'S18'
I0
I1
tRp555
(I3
S'|'
NNNI18
I1
I0
tbS'SONRLQH12AB017C232'
tRp556
ag4
(g5
(S'S40'
I0
I1
tRp557
(I3
S'|'
NNNI40
I1
I0
tbS'Hank Penny & The Lincoln Penny Orchestra'
tRp558
ag4
(g5
(S'S5'
I0
I1
tRp559
(I3
S'|'
NNNI5
I1
I0
tbS'Dixie'
tRp560
aa(lp561
F0.34554566808795051
aF0.096081359655793841
aF0.035531733636234554
aF0.55997360171588839
aF0.094940359105787631
aaa(lp562
(lp563
g4
(g5
(S'S18'
I0
I1
tRp564
(I3
S'|'
NNNI18
I1
I0
tbS'SORENXV12A6701F61F'
tRp565
ag4
(g5
(S'S8'
I0
I1
tRp566
(I3
S'|'
NNNI8
I1
I0
tbS'Borialis'
tRp567
ag4
(g5
(S'S9'
I0
I1
tRp568
(I3
S'|'
NNNI9
I1
I0
tbS'Hourglass'
tRp569
aa(lp570
F0.41892585934859783
aF0.31651785780407132
aF0.0064603152065881011
aF0.84590001649892754
aF0.29008620525023204
aaa(lp571
(lp572
g4
(g5
(S'S18'
I0
I1
tRp573
(I3
S'|'
NNNI18
I1
I0
tbS'SOYMMDY12AB01825B2'
tRp574
ag4
(g5
(S'S16'
I0
I1
tRp575
(I3
S'|'
NNNI16
I1
I0
tbS'The Dirty Skirts'
tRp576
ag4
(g5
(S'S4'
I0
I1
tRp577
(I3
S'|'
NNNI4
I1
I0
tbS'Wake'
tRp578
aa(lp579
F0.40179475589339303
aF0.25471230596713912
aF0.0034076387902882295
aF0.88100148490348118
aF0.2382389226062479
aaa(lp580
(lp581
g4
(g5
(S'S18'
I0
I1
tRp582
(I3
S'|'
NNNI18
I1
I0
tbS'SOOVOKS12AB017EE57'
tRp583
ag4
(g5
(S'S5'
I0
I1
tRp584
(I3
S'|'
NNNI5
I1
I0
tbS'B\xc3\xa9zu'
tRp585
ag4
(g5
(S'S13'
I0
I1
tRp586
(I3
S'|'
NNNI13
I1
I0
tbS'Le tortillard'
tRp587
aa(lp588
F0.14810544348934845
aF0.40451389858104547
aF0.014092006247337783
aF0.70834020788648733
aF0.39409587612721858
aaa(lp589
(lp590
g4
(g5
(S'S18'
I0
I1
tRp591
(I3
S'|'
NNNI18
I1
I0
tbS'SOGYYLE12A8C13E5EA'
tRp592
ag4
(g5
(S'S18'
I0
I1
tRp593
(I3
S'|'
NNNI18
I1
I0
tbS'Solistiyhtye Suomi'
tRp594
ag4
(g5
(S'S11'
I0
I1
tRp595
(I3
S'|'
NNNI11
I1
I0
tbS'Ter\xc3\xa4slintu'
tRp596
aa(lp597
F0.31593369256708176
aF0.11671628228000845
aF0.15763879028822944
aF0.55382775119617211
aF0.11843195819981131
aaa(lp598
(lp599
g4
(g5
(S'S18'
I0
I1
tRp600
(I3
S'|'
NNNI18
I1
I0
tbS'SOITUXQ12AB0183AE9'
tRp601
ag4
(g5
(S'S12'
I0
I1
tRp602
(I3
S'|'
NNNI12
I1
I0
tbS'Eddie Cantor'
tRp603
ag4
(g5
(S'S30'
I0
I1
tRp604
(I3
S'|'
NNNI30
I1
I0
tbS"Now's The Time To Fall In Love"
tRp605
aa(lp606
F0.32913442081589528
aF0.15758930136302138
aF0.0054664205594207012
aF0.51790133641313307
aF0.15733317546225037
aaa(lp607
(lp608
g4
(g5
(S'S18'
I0
I1
tRp609
(I3
S'|'
NNNI18
I1
I0
tbS'SOUVRGZ12A58A77F90'
tRp610
ag4
(g5
(S'S11'
I0
I1
tRp611
(I3
S'|'
NNNI11
I1
I0
tbS'Kai Winding'
tRp612
ag4
(g5
(S'S6'
I0
I1
tRp613
(I3
S'|'
NNNI6
I1
I0
tbS'Mangos'
tRp614
aa(lp615
F0.31448533964088665
aF0.28645834223429351
aF0.010329405083061195
aF0.48787328823626452
aF0.28963168930970867
aaa(lp616
(lp617
g4
(g5
(S'S18'
I0
I1
tRp618
(I3
S'|'
NNNI18
I1
I0
tbS'SOBLTSM12A6D4F9EEA'
tRp619
ag4
(g5
(S'S13'
I0
I1
tRp620
(I3
S'|'
NNNI13
I1
I0
tbS'Sonny Simmons'
tRp621
ag4
(g5
(S'S15'
I0
I1
tRp622
(I3
S'|'
NNNI15
I1
I0
tbS'A Distant Voice'
tRp623
aa(lp624
F0.31595647657328418
aF0.70376983717822528
aF0.0081641346017322161
aF0.54710443821151611
aF0.69203107514026962
aaa(lp625
g3
a(lp626
F0.39962299712066179
aF0.27782738263084777
aF0.0087675706375124236
aF0.40436322653356949
aF0.39659045878385479
aaa(lp627
g14
a(lp628
F0.41503352986643677
aF0.14320436236104012
aF0.0052534431350276869
aF0.44069661353512585
aF0.26555117951040408
aaa(lp629
g23
a(lp630
F0.34139979235376133
aF0.19910713922894197
aF0.010009938946471673
aF0.44482906670960121
aF0.32117295981496607
aaa(lp631
g32
a(lp632
F0.39935075690216659
aF0.26011905772375671
aF0.0023427516683231578
aF0.58404443728868127
aF0.36386500934065491
aaa(lp633
g41
a(lp634
F0.38319362706969978
aF0.37043650384489202
aF0.080363481470964074
aF0.4546503515268609
aF0.45374717960744987
aaa(lp635
g50
a(lp636
F0.26039392554046503
aF0.080059536457364314
aF0.0034076387902882295
aF0.24054097568829494
aF0.22813518475087544
aaa(lp637
g59
a(lp638
F0.60193048524015857
aF0.22207342032215568
aF0.011323299730228597
aF0.39242204690602694
aF0.33527532692292139
aaa(lp639
g68
a(lp640
F0.33031303777420723
aF0.37445436402255272
aF0.18813005821382933
aF0.34267160414318676
aF0.46138144646712986
aaa(lp641
g77
a(lp642
F0.42020877479567248
aF0.36795634980539793
aF0.002981683941502201
aF0.52511672838512313
aF0.46584069937648104
aaa(lp643
g86
a(lp644
F0.29451893283950487
aF0.27752977250114302
aF0.075429504472525916
aF0.43592014168410881
aF0.37731070010432421
aaa(lp645
g95
a(lp646
F0.3494792672775886
aF0.32772818748272264
aF0.012672156751384353
aF0.50236140181398592
aF0.41041624546108868
aaa(lp647
g104
a(lp648
F0.25044836907993029
aF0.22638889062952108
aF0.013488570211557575
aF0.49686040895185957
aF0.34724592205607629
aaa(lp649
g113
a(lp650
F0.54980506846342247
aF0.44578372484075973
aF0.02172369728808746
aF0.48086727848440936
aF0.52230677783798218
aaa(lp651
g122
a(lp652
F0.32885232752158683
aF0.29618056429827644
aF0.0079156609399403666
aF0.27252723662319539
aF0.39415461007820268
aaa(lp653
g131
a(lp654
F0.30486459841444558
aF1
aF0.042347011216811017
aF0.48929318950249556
aF1
aaa(lp655
g140
a(lp656
F0.51043033005868077
aF0.4133432522784844
aF0.0051469544228311794
aF0.56338217141630431
aF0.50442933046509186
aaa(lp657
g149
a(lp658
F0.28981764053563214
aF0.15044643038552905
aF0.10034786312650859
aF0.29638276176675787
aF0.27894996482091011
aaa(lp659
g158
a(lp660
F0.32661229587552698
aF0.2813492195960956
aF0.0073122249041601582
aF0.47635914774861804
aF0.37835232465043306
aaa(lp661
g167
a(lp662
F0.53868810564965375
aF0.25664683827072204
aF0.0021652704813289792
aF0.59040412171952983
aF0.37356473356893888
aaa(lp663
g176
a(lp664
F0.34784572422372378
aF0.21622024387662364
aF0.038442425102939083
aF0.58364192561584294
aF0.32628888906860326
aaa(lp665
g185
a(lp666
F0.37742845770384131
aF0.18159722740455905
aF0.0070992474797671448
aF0.44678795685074868
aF0.30432904984108755
aaa(lp667
g194
a(lp668
F0.29746285377941245
aF0.1590773899889748
aF0.019948885418145677
aF0.22044222615789191
aF0.28612326429605422
aaa(lp669
g203
a(lp670
F0.4137147854565224
aF0.51259920226889322
aF0.0022362629561266507
aF0.38445231578382438
aF0.5813364819292699
aaa(lp671
g212
a(lp672
F0.4501149092855275
aF0.78234126602092124
aF1
aF0.29332367305318513
aF0.81943664933321481
aaa(lp673
g221
a(lp674
F0.4851371731196179
aF0.71820435571498986
aF0.016576742865256282
aF0.46162722052272842
aF0.7316765464647037
aaa(lp675
g230
a(lp676
F0.40925716762899433
aF0.43764880743844176
aF0.0023782479057219935
aF0.46656469704288095
aF0.51933070770624246
aaa(lp677
g239
a(lp678
F0.29311955546812207
aF0.7285714345393105
aF0.0085545932131194085
aF0.18214994901518802
aF0.77245355955779482
aaa(lp679
g248
a(lp680
F0.73141962245538328
aF0.37762897334588263
aF0.0060698565952009087
aF0.42687704610100358
aF0.4691354031038471
aaa(lp681
g257
a(lp682
F0.34801071119168769
aF0.29250993176253365
aF0.011039329831037909
aF0.36360221113078944
aF0.39752533298828169
aaa(lp683
g266
a(lp684
F0.44015048284492381
aF0.22380952055431555
aF0.009158029248899616
aF0.28452208447378302
aF0.32881531382174312
aaa(lp685
g275
a(lp686
F0.46387257386046837
aF0.38958333784315313
aF0.0085190969757205724
aF0.51848870283904902
aF0.47506975164371262
aaa(lp687
g284
a(lp688
F0.54104264872573571
aF0.33452381182958213
aF0.0064958114439869373
aF0.49538453281811839
aF0.44067834989850635
aaa(lp689
g293
a(lp690
F0.39188861012161147
aF0.19578373433511717
aF0.026054238250745421
aF0.41152793431009499
aF0.3153421267579436
aaa(lp691
g302
a(lp692
F0.33260105596802636
aF0.27460317478401952
aF0.036987079369586826
aF0.45008855256802438
aF0.38779811245986756
aaa(lp693
g311
a(lp694
F0.47647724775386607
aF0.51542658395030516
aF0.0024137441431208292
aF0.45652873933344063
aF0.58436916209068934
aaa(lp695
g320
a(lp696
F0.42538661420375423
aF0.33953373742078341
aF0.0025202328553173359
aF0.38257392797724465
aF0.42678139632681783
aaa(lp697
g329
a(lp698
F0.40980554990997903
aF0.37440476549905433
aF0.0077381797529461876
aF0.40849567970804485
aF0.4588356125609569
aaa(lp699
g338
a(lp700
F0.49773382347981376
aF0.32003969476931926
aF0.019487434331960814
aF0.47590296785273439
aF0.41504532845947939
aaa(lp701
g347
a(lp702
F0.33641584697390081
aF0.094990078206541706
aF0.035141275024847367
aF0.47563462673750867
aF0.21979733609374622
aaa(lp703
g356
a(lp704
F0.52060565667756797
aF0.2553075452152635
aF0.091686781201192682
aF0.52694144796865783
aF0.37042853792467634
aaa(lp705
g365
a(lp706
F0.3784557645560902
aF0.31706349852869742
aF0.011039329831037909
aF0.12649600171738309
aF0.42501678083022659
aaa(lp707
g374
a(lp708
F0.3945116942692542
aF0.29682540206989905
aF0.011997728240806475
aF0.47174368056673643
aF0.39762884847112484
aaa(lp709
g383
a(lp710
F0.45485119949462399
aF0.17658730181335774
aF0.077062331392872344
aF0.53786293135834262
aF0.31035559185786032
aaa(lp711
g392
a(lp712
F0.78414656298125385
aF0.21894840952232408
aF0.011642765866818118
aF0.54631567648795143
aF0.33417709234713266
aaa(lp713
g401
a(lp714
F0.2982741554893189
aF0.38715278232715744
aF0.010613374982251881
aF0.58036816401008962
aF0.4661787421251406
aaa(lp715
g410
a(lp716
F0.55101736260375378
aF0.13650793506117725
aF0.0084126082635240657
aF0.49586754682552459
aF0.26901571332680968
aaa(lp717
g419
a(lp718
F0.46406950731409446
aF0.33055555017541965
aF0.011429788442425103
aF0.44713680030054198
aF0.40486684512304594
aaa(lp719
g428
a(lp720
F0.26470243270325089
aF0.3814980189643335
aF0.077275308817265367
aF0.53563570010196959
aF0.47739885000768278
aaa(lp721
g437
a(lp722
F0.33551367831205764
aF0.42956348855962201
aF0.6777296606559704
aF0.43653732624912794
aF0.51066452087697023
aaa(lp723
g446
a(lp724
F0.3615199708856629
aF0.1685516004467513
aF0.0058568791708078945
aF0.45899747759351683
aF0.30351063055485911
aaa(lp725
g455
a(lp726
F0.59492348588364785
aF0.67271825619490688
aF0.010151923896067016
aF0.35729619492298603
aF0.68929342595812482
aaa(lp727
g464
a(lp728
F0.47657587793361611
aF0.37341270008551375
aF0.13804486724407211
aF0.38949712875006709
aF0.46754061769629535
aaa(lp729
g473
a(lp730
F0.13842487795898867
aF0.33571429032583083
aF0.022966065597046715
aF0.52522406483121342
aF0.42813356732145602
aaa(lp731
g482
a(lp732
F0.38680240953153333
aF0.12127976419358023
aF0.00812863836433338
aF0.46087586540009656
aF0.25279127882057045
aaa(lp733
g491
a(lp734
F0.32058022885557497
aF0.30505953550792864
aF0.013701547635950589
aF0.63349970482477325
aF0.41639749945411758
aaa(lp735
g500
a(lp736
F0.33366918822810399
aF0.21765873397907878
aF0.0037980974016754224
aF0.58621800032200932
aF0.33139673117514334
aaa(lp737
g509
a(lp738
F0.36223255098262863
aF0.37981151725567192
aF0.098502058781769125
aF0.4372886813717598
aF0.48345935804226348
aaa(lp739
g518
a(lp740
F0.47818289274305464
aF0.13318453016735252
aF0.0077381797529461876
aF0.40066011914345512
aF0.2617194892157893
aaa(lp741
g527
a(lp742
F0.34125416117944202
aF0.23070436093688654
aF0.0031591651284963791
aF0.28672248161863356
aF0.33803466151245826
aaa(lp743
g536
a(lp744
F0.38438508859607656
aF0.23412698186642286
aF0.0058568791708078945
aF0.38335211721139911
aF0.35317056601942531
aaa(lp745
g545
a(lp746
F0.54915031305275064
aF0.40977183577845322
aF0.0040110748260684366
aF0.48572425266999408
aF0.49403572901587506
aaa(lp747
g554
a(lp748
F0.34554566808795051
aF0.096081359655793841
aF0.035531733636234554
aF0.36429989803037621
aF0.2334678495467154
aaa(lp749
g563
a(lp750
F0.41892585934859783
aF0.31651785780407132
aF0.0064603152065881011
aF0.55031395910481407
aF0.39874487477052722
aaa(lp751
g572
a(lp752
F0.40179475589339303
aF0.25471230596713912
aF0.0034076387902882295
aF0.57314978801051897
aF0.35483328346259291
aaa(lp753
g581
a(lp754
F0.14810544348934845
aF0.40451389858104547
aF0.014092006247337783
aF0.46082219717705142
aF0.48683493324060073
aaa(lp755
g590
a(lp756
F0.31593369256708176
aF0.11671628228000845
aF0.15763879028822944
aF0.36030161541351363
aF0.25336384883504642
aaa(lp757
g599
a(lp758
F0.32913442081589528
aF0.15758930136302138
aF0.0054664205594207012
aF0.33692910427735734
aF0.28631088610870742
aaa(lp759
g608
a(lp760
F0.31448533964088665
aF0.28645834223429351
aF0.010329405083061195
aF0.31739387108892819
aF0.39835992656870439
aaa(lp761
g617
a(lp762
F0.31595647657328418
aF0.70376983717822528
aF0.0081641346017322161
aF0.35592765523533509
aF0.73916847953547427
aaa(lp763
(lp764
g4
(g5
(S'S18'
I0
I1
tRp765
(I3
S'|'
NNNI18
I1
I0
tbS'SOMZWCG12A8C13C480'
tRp766
ag4
(g5
(S'S6'
I0
I1
tRp767
(I3
S'|'
NNNI6
I1
I0
tbS'Casual'
tRp768
ag4
(g5
(S'S16'
I0
I1
tRp769
(I3
S'|'
NNNI16
I1
I0
tbS"I Didn't Mean To"
tRp770
aa(lp771
F0.39962299712066179
aF0.27782738263084777
aF0.0087675706375124236
aF0.73165888477432506
aF0.024373043921295884
aaa(lp772
(lp773
g4
(g5
(S'S18'
I0
I1
tRp774
(I3
S'|'
NNNI18
I1
I0
tbS'SOCIWDW12A8C13D406'
tRp775
ag4
(g5
(S'S12'
I0
I1
tRp776
(I3
S'|'
NNNI12
I1
I0
tbS'The Box Tops'
tRp777
ag4
(g5
(S'S9'
I0
I1
tRp778
(I3
S'|'
NNNI9
I1
I0
tbS'Soul Deep'
tRp779
aa(lp780
F0.41503352986643677
aF0.14320436236104012
aF0.0052534431350276869
aF0.86582944238716253
aF0.026563043355195586
aaa(lp781
(lp782
g4
(g5
(S'S18'
I0
I1
tRp783
(I3
S'|'
NNNI18
I1
I0
tbS'SOXVLOJ12AB0189215'
tRp784
ag4
(g5
(S'S16'
I0
I1
tRp785
(I3
S'|'
NNNI16
I1
I0
tbS'Sonora Santanera'
tRp786
ag4
(g5
(S'S15'
I0
I1
tRp787
(I3
S'|'
NNNI15
I1
I0
tbS'Amor De Cabaret'
tRp788
aa(lp789
F0.34139979235376133
aF0.19910713922894197
aF0.010009938946471673
aF0.9194976654322975
aF0.026812127485786836
aaa(lp790
(lp791
g4
(g5
(S'S18'
I0
I1
tRp792
(I3
S'|'
NNNI18
I1
I0
tbS'SOFSOCN12A8C143F5D'
tRp793
ag4
(g5
(S'S3'
I0
I1
tRp794
(I3
S'|'
NNNI3
I1
I0
tbS'Gob'
tRp795
ag4
(g5
(S'S14'
I0
I1
tRp796
(I3
S'|'
NNNI14
I1
I0
tbS'Face the Ashes'
tRp797
aa(lp798
F0.39935075690216659
aF0.26011905772375671
aF0.0023427516683231578
aF0.7584929962968926
aF0.035203351313757042
aaa(lp799
(lp800
g4
(g5
(S'S18'
I0
I1
tRp801
(I3
S'|'
NNNI18
I1
I0
tbS'SOYMRWW12A6D4FAB14'
tRp802
ag4
(g5
(S'S21'
I0
I1
tRp803
(I3
S'|'
NNNI21
I1
I0
tbS'Jeff And Sheri Easter'
tRp804
ag4
(g5
(S'S43'
I0
I1
tRp805
(I3
S'|'
NNNI43
I1
I0
tbS'The Moon And I (Ordinary Day Album Version)'
tRp806
aa(lp807
F0.38319362706969978
aF0.37043650384489202
aF0.080363481470964074
aF0.8389953308645951
aF0.027404106653295915
aaa(lp808
(lp809
g4
(g5
(S'S18'
I0
I1
tRp810
(I3
S'|'
NNNI18
I1
I0
tbS'SOMJBYD12A6D4F8557'
tRp811
ag4
(g5
(S'S7'
I0
I1
tRp812
(I3
S'|'
NNNI7
I1
I0
tbS'Rated R'
tRp813
ag4
(g5
(S'S21'
I0
I1
tRp814
(I3
S'|'
NNNI21
I1
I0
tbS'Keepin It Real (Skit)'
tRp815
aa(lp816
F0.26039392554046503
aF0.080059536457364314
aF0.0034076387902882295
aF0.73165888477432506
aF0.014498637315714134
aaa(lp817
(lp818
g4
(g5
(S'S18'
I0
I1
tRp819
(I3
S'|'
NNNI18
I1
I0
tbS'SOHKNRJ12A6701D1F8'
tRp820
ag4
(g5
(S'S21'
I0
I1
tRp821
(I3
S'|'
NNNI21
I1
I0
tbS'Tweeterfriendly Music'
tRp822
ag4
(g5
(S'S12'
I0
I1
tRp823
(I3
S'|'
NNNI12
I1
I0
tbS'Drop of Rain'
tRp824
aa(lp825
F0.60193048524015857
aF0.22207342032215568
aF0.011323299730228597
aF0.81216121934202756
aF0.023653287829652331
aaa(lp826
(lp827
g4
(g5
(S'S18'
I0
I1
tRp828
(I3
S'|'
NNNI18
I1
I0
tbS'SOIAZJW12AB01853F1'
tRp829
ag4
(g5
(S'S16'
I0
I1
tRp830
(I3
S'|'
NNNI16
I1
I0
tbS'Planet P Project'
tRp831
ag4
(g5
(S'S10'
I0
I1
tRp832
(I3
S'|'
NNNI10
I1
I0
tbS'Pink World'
tRp833
aa(lp834
F0.33031303777420723
aF0.37445436402255272
aF0.18813005821382933
aF0.81216121934202756
aF0.020654573686040772
aaa(lp835
(lp836
g4
(g5
(S'S18'
I0
I1
tRp837
(I3
S'|'
NNNI18
I1
I0
tbS'SOUDSGM12AC9618304'
tRp838
ag4
(g5
(S'S3'
I0
I1
tRp839
(I3
S'|'
NNNI3
I1
I0
tbS'Clp'
tRp840
ag4
(g5
(S'S33'
I0
I1
tRp841
(I3
S'|'
NNNI33
I1
I0
tbS'Insatiable (Instrumental Version)'
tRp842
aa(lp843
F0.42020877479567248
aF0.36795634980539793
aF0.002981683941502201
aF0.89266355390973007
aF0.031651476308702575
aaa(lp844
(lp845
g4
(g5
(S'S18'
I0
I1
tRp846
(I3
S'|'
NNNI18
I1
I0
tbS'SOQHXMF12AB0182363'
tRp847
ag4
(g5
(S'S12'
I0
I1
tRp848
(I3
S'|'
NNNI12
I1
I0
tbS'JennyAnyKind'
tRp849
ag4
(g5
(S'S15'
I0
I1
tRp850
(I3
S'|'
NNNI15
I1
I0
tbS'Young Boy Blues'
tRp851
aa(lp852
F0.29451893283950487
aF0.27752977250114302
aF0.075429504472525916
aF0.8389953308645951
aF0.026275140918538165
aaa(lp853
(lp854
g4
(g5
(S'S18'
I0
I1
tRp855
(I3
S'|'
NNNI18
I1
I0
tbS'SOKEJEJ12A8C13E0D0'
tRp856
ag4
(g5
(S'S12'
I0
I1
tRp857
(I3
S'|'
NNNI12
I1
I0
tbS'Wayne Watson'
tRp858
ag4
(g5
(S'S24'
I0
I1
tRp859
(I3
S'|'
NNNI24
I1
I0
tbS'The Urgency (LP Version)'
tRp860
aa(lp861
F0.3494792672775886
aF0.32772818748272264
aF0.012672156751384353
aF0.89266355390973007
aF0.030279896161031269
aaa(lp862
(lp863
g4
(g5
(S'S18'
I0
I1
tRp864
(I3
S'|'
NNNI18
I1
I0
tbS'SORAMLE12AB017C8B0'
tRp865
ag4
(g5
(S'S9'
I0
I1
tRp866
(I3
S'|'
NNNI9
I1
I0
tbS'Bob Azzam'
tRp867
ag4
(g5
(S'S14'
I0
I1
tRp868
(I3
S'|'
NNNI14
I1
I0
tbS'Auguri Cha Cha'
tRp869
aa(lp870
F0.25044836907993029
aF0.22638889062952108
aF0.013488570211557575
aF0.97316588847743246
aF0.029948323130049411
aaa(lp871
(lp872
g4
(g5
(S'S18'
I0
I1
tRp873
(I3
S'|'
NNNI18
I1
I0
tbS'SOBONFF12A6D4F84D8'
tRp874
ag4
(g5
(S'S13'
I0
I1
tRp875
(I3
S'|'
NNNI13
I1
I0
tbS'Lionel Richie'
tRp876
ag4
(g5
(S'S23'
I0
I1
tRp877
(I3
S'|'
NNNI23
I1
I0
tbS'Tonight Will Be Alright'
tRp878
aa(lp879
F0.54980506846342247
aF0.44578372484075973
aF0.02172369728808746
aF0.78532710781946014
aF0.02898433519607288
aaa(lp880
(lp881
g4
(g5
(S'S18'
I0
I1
tRp882
(I3
S'|'
NNNI18
I1
I0
tbS'SOUQQEA12A8C134B1B'
tRp883
ag4
(g5
(S'S15'
I0
I1
tRp884
(I3
S'|'
NNNI15
I1
I0
tbS'Richard Souther'
tRp885
ag4
(g5
(S'S9'
I0
I1
tRp886
(I3
S'|'
NNNI9
I1
I0
tbS'High Tide'
tRp887
aa(lp888
F0.32885232752158683
aF0.29618056429827644
aF0.0079156609399403666
aF0.9194976654322975
aF0.016426613183667196
aaa(lp889
(lp890
g4
(g5
(S'S18'
I0
I1
tRp891
(I3
S'|'
NNNI18
I1
I0
tbS'SOILPQQ12AB017E82A'
tRp892
ag4
(g5
(S'S13'
I0
I1
tRp893
(I3
S'|'
NNNI13
I1
I0
tbS'Faiz Ali Faiz'
tRp894
ag4
(g5
(S'S20'
I0
I1
tRp895
(I3
S'|'
NNNI20
I1
I0
tbS'Sohna Nee Sohna Data'
tRp896
aa(lp897
F0.30486459841444558
aF1
aF0.042347011216811017
aF0.86582944238716253
aF0.029492208033771925
aaa(lp898
(lp899
g4
(g5
(S'S18'
I0
I1
tRp900
(I3
S'|'
NNNI18
I1
I0
tbS'SOXLBJT12A8C140925'
tRp901
ag4
(g5
(S'S5'
I0
I1
tRp902
(I3
S'|'
NNNI5
I1
I0
tbS'Tesla'
tRp903
ag4
(g5
(S'S17'
I0
I1
tRp904
(I3
S'|'
NNNI17
I1
I0
tbS'Caught In A Dream'
tRp905
aa(lp906
F0.51043033005868077
aF0.4133432522784844
aF0.0051469544228311794
aF0.89266355390973007
aF0.033957930660800786
aaa(lp907
(lp908
g4
(g5
(S'S18'
I0
I1
tRp909
(I3
S'|'
NNNI18
I1
I0
tbS'SOWTBJW12AC468AC6E'
tRp910
ag4
(g5
(S'S12'
I0
I1
tRp911
(I3
S'|'
NNNI12
I1
I0
tbS'Jimmy Wakely'
tRp912
ag4
(g5
(S'S26'
I0
I1
tRp913
(I3
S'|'
NNNI26
I1
I0
tbS'Broken-Down Merry-Go-Round'
tRp914
aa(lp915
F0.28981764053563214
aF0.15044643038552905
aF0.10034786312650859
aF0.73165888477432506
aF0.017864507937534874
aaa(lp916
(lp917
g4
(g5
(S'S18'
I0
I1
tRp918
(I3
S'|'
NNNI18
I1
I0
tbS'SOBEBDG12A58A76D60'
tRp919
ag4
(g5
(S'S12'
I0
I1
tRp920
(I3
S'|'
NNNI12
I1
I0
tbS'Alice Stuart'
tRp921
ag4
(g5
(S'S12'
I0
I1
tRp922
(I3
S'|'
NNNI12
I1
I0
tbS'Kassie Jones'
tRp923
aa(lp924
F0.32661229587552698
aF0.2813492195960956
aF0.0073122249041601582
aF1
aF0.028712607053609698
aaa(lp925
(lp926
g4
(g5
(S'S18'
I0
I1
tRp927
(I3
S'|'
NNNI18
I1
I0
tbS'SOBBUGU12A8C13E95D'
tRp928
ag4
(g5
(S'S25'
I0
I1
tRp929
(I3
S'|'
NNNI25
I1
I0
tbS'The Dillinger Escape Plan'
tRp930
ag4
(g5
(S'S31'
I0
I1
tRp931
(I3
S'|'
NNNI31
I1
I0
tbS'Setting Fire to Sleeping Giants'
tRp932
aa(lp933
F0.53868810564965375
aF0.25664683827072204
aF0.0021652704813289792
aF0.89266355390973007
aF0.035586682086160462
aaa(lp934
(lp935
g4
(g5
(S'S18'
I0
I1
tRp936
(I3
S'|'
NNNI18
I1
I0
tbS'SONYPOM12A8C13B2D7'
tRp937
ag4
(g5
(S'S10'
I0
I1
tRp938
(I3
S'|'
NNNI10
I1
I0
tbS'Tim Wilson'
tRp939
ag4
(g5
(S'S51'
I0
I1
tRp940
(I3
S'|'
NNNI51
I1
I0
tbS'I Think My Wife Is Running Around On Me (Taco Hell)'
tRp941
aa(lp942
F0.34784572422372378
aF0.21622024387662364
aF0.038442425102939083
aF0.8389953308645951
aF0.035179089872465694
aaa(lp943
(lp944
g4
(g5
(S'S18'
I0
I1
tRp945
(I3
S'|'
NNNI18
I1
I0
tbS'SOBZBAZ12A6D4F8742'
tRp946
ag4
(g5
(S'S11'
I0
I1
tRp947
(I3
S'|'
NNNI11
I1
I0
tbS'Willie Bobo'
tRp948
ag4
(g5
(S'S14'
I0
I1
tRp949
(I3
S'|'
NNNI14
I1
I0
tbS'Spanish Grease'
tRp950
aa(lp951
F0.37742845770384131
aF0.18159722740455905
aF0.0070992474797671448
aF0.9194976654322975
aF0.026930199833404767
aaa(lp952
(lp953
g4
(g5
(S'S18'
I0
I1
tRp954
(I3
S'|'
NNNI18
I1
I0
tbS'SOVYKGO12AB0187199'
tRp955
ag4
(g5
(S'S10'
I0
I1
tRp956
(I3
S'|'
NNNI10
I1
I0
tbS'Faye Adams'
tRp957
ag4
(g5
(S'S20'
I0
I1
tRp958
(I3
S'|'
NNNI20
I1
I0
tbS'Crazy Mixed Up World'
tRp959
aa(lp960
F0.29746285377941245
aF0.1590773899889748
aF0.019948885418145677
aF0.9194976654322975
aF0.013287182680565777
aaa(lp961
(lp962
g4
(g5
(S'S18'
I0
I1
tRp963
(I3
S'|'
NNNI18
I1
I0
tbS'SOGNCJP12A58A80271'
tRp964
ag4
(g5
(S'S13'
I0
I1
tRp965
(I3
S'|'
NNNI13
I1
I0
tbS'Terry Callier'
tRp966
ag4
(g5
(S'S28'
I0
I1
tRp967
(I3
S'|'
NNNI28
I1
I0
tbS'Do You Finally Need A Friend'
tRp968
aa(lp969
F0.4137147854565224
aF0.51259920226889322
aF0.0022362629561266507
aF0.86582944238716253
aF0.02317291129208349
aaa(lp970
(lp971
g4
(g5
(S'S18'
I0
I1
tRp972
(I3
S'|'
NNNI18
I1
I0
tbS'SOLLHMX12AB01846DC'
tRp973
ag4
(g5
(S'S11'
I0
I1
tRp974
(I3
S'|'
NNNI11
I1
I0
tbS'John Wesley'
tRp975
ag4
(g5
(S'S17'
I0
I1
tRp976
(I3
S'|'
NNNI17
I1
I0
tbS'The Emperor Falls'
tRp977
aa(lp978
F0.4501149092855275
aF0.78234126602092124
aF1
aF0.81216121934202756
aF0.017680120983720567
aaa(lp979
(lp980
g4
(g5
(S'S18'
I0
I1
tRp981
(I3
S'|'
NNNI18
I1
I0
tbS'SOJXVAH12A8C139700'
tRp982
ag4
(g5
(S'S16'
I0
I1
tRp983
(I3
S'|'
NNNI16
I1
I0
tbS'Butthole Surfers'
tRp984
ag4
(g5
(S'S29'
I0
I1
tRp985
(I3
S'|'
NNNI29
I1
I0
tbS'Barking Dogs (From "Piouhgd")'
tRp986
aa(lp987
F0.4851371731196179
aF0.71820435571498986
aF0.016576742865256282
aF0.81216121934202756
aF0.027824638302346074
aaa(lp988
(lp989
g4
(g5
(S'S18'
I0
I1
tRp990
(I3
S'|'
NNNI18
I1
I0
tbS'SOVXMTN12A8C135A18'
tRp991
ag4
(g5
(S'S13'
I0
I1
tRp992
(I3
S'|'
NNNI13
I1
I0
tbS'Despina Vandi'
tRp993
ag4
(g5
(S'S18'
I0
I1
tRp994
(I3
S'|'
NNNI18
I1
I0
tbS'OUTE ENA EFHARISTO'
tRp995
aa(lp996
F0.40925716762899433
aF0.43764880743844176
aF0.0023782479057219935
aF0.9194976654322975
aF0.028122245315520045
aaa(lp997
(lp998
g4
(g5
(S'S18'
I0
I1
tRp999
(I3
S'|'
NNNI18
I1
I0
tbS'SOOGFBZ12AC3DF7FF2'
tRp1000
ag4
(g5
(S'S11'
I0
I1
tRp1001
(I3
S'|'
NNNI11
I1
I0
tbS'Jacob Young'
tRp1002
ag4
(g5
(S'S15'
I0
I1
tRp1003
(I3
S'|'
NNNI15
I1
I0
tbS'In A Subtle Way'
tRp1004
aa(lp1005
F0.29311955546812207
aF0.7285714345393105
aF0.0085545932131194085
aF0.73165888477432506
aF0.010979110899048138
aaa(lp1006
(lp1007
g4
(g5
(S'S18'
I0
I1
tRp1008
(I3
S'|'
NNNI18
I1
I0
tbS'SONQBUB12A6D4F8ED0'
tRp1009
ag4
(g5
(S'S18'
I0
I1
tRp1010
(I3
S'|'
NNNI18
I1
I0
tbS'The Rolling Stones'
tRp1011
ag4
(g5
(S'S29'
I0
I1
tRp1012
(I3
S'|'
NNNI29
I1
I0
tbS'Angie (1993 Digital Remaster)'
tRp1013
aa(lp1014
F0.73141962245538328
aF0.37762897334588263
aF0.0060698565952009087
aF0.94633177695486503
aF0.025730067204192374
aaa(lp1015
(lp1016
g4
(g5
(S'S18'
I0
I1
tRp1017
(I3
S'|'
NNNI18
I1
I0
tbS'SOHGKJW12AC468A8BD'
tRp1018
ag4
(g5
(S'S14'
I0
I1
tRp1019
(I3
S'|'
NNNI14
I1
I0
tbS'Roberto Torres'
tRp1020
ag4
(g5
(S'S13'
I0
I1
tRp1021
(I3
S'|'
NNNI13
I1
I0
tbS'Sabor Guajiro'
tRp1022
aa(lp1023
F0.34801071119168769
aF0.29250993176253365
aF0.011039329831037909
aF0.70482477325175763
aF0.021916168633191267
aaa(lp1024
(lp1025
g4
(g5
(S'S18'
I0
I1
tRp1026
(I3
S'|'
NNNI18
I1
I0
tbS'SOINBCU12A6D4F94C0'
tRp1027
ag4
(g5
(S'S21'
I0
I1
tRp1028
(I3
S'|'
NNNI21
I1
I0
tbS'Loudon Wainwright III'
tRp1029
ag4
(g5
(S'S16'
I0
I1
tRp1030
(I3
S'|'
NNNI16
I1
I0
tbS'Human Cannonball'
tRp1031
aa(lp1032
F0.44015048284492381
aF0.22380952055431555
aF0.009158029248899616
aF0.78532710781946014
aF0.017149604134149593
aaa(lp1033
(lp1034
g4
(g5
(S'S18'
I0
I1
tRp1035
(I3
S'|'
NNNI18
I1
I0
tbS'SOTWVQT12A58A79650'
tRp1036
ag4
(g5
(S'S13'
I0
I1
tRp1037
(I3
S'|'
NNNI13
I1
I0
tbS'R.L. Burnside'
tRp1038
ag4
(g5
(S'S8'
I0
I1
tRp1039
(I3
S'|'
NNNI8
I1
I0
tbS'Glory Be'
tRp1040
aa(lp1041
F0.46387257386046837
aF0.38958333784315313
aF0.0085190969757205724
aF0.7584929962968926
aF0.031251971242104923
aaa(lp1042
(lp1043
g4
(g5
(S'S18'
I0
I1
tRp1044
(I3
S'|'
NNNI18
I1
I0
tbS'SOTSEJY12AB0180F56'
tRp1045
ag4
(g5
(S'S18'
I0
I1
tRp1046
(I3
S'|'
NNNI18
I1
I0
tbS'Stevie Ray Vaughan'
tRp1047
ag4
(g5
(S'S9'
I0
I1
tRp1048
(I3
S'|'
NNNI9
I1
I0
tbS'Crossfire'
tRp1049
aa(lp1050
F0.54104264872573571
aF0.33452381182958213
aF0.0064958114439869373
aF0.73165888477432506
aF0.029859364511981106
aaa(lp1051
(lp1052
g4
(g5
(S'S18'
I0
I1
tRp1053
(I3
S'|'
NNNI18
I1
I0
tbS'SOTUNMH12A6D4FA3E6'
tRp1054
ag4
(g5
(S'S33'
I0
I1
tRp1055
(I3
S'|'
NNNI33
I1
I0
tbS'Casiotone For The Painfully Alone'
tRp1056
ag4
(g5
(S'S19'
I0
I1
tRp1057
(I3
S'|'
NNNI19
I1
I0
tbS'Nashville Parthenon'
tRp1058
aa(lp1059
F0.39188861012161147
aF0.19578373433511717
aF0.026054238250745421
aF0.70482477325175763
aF0.024804897576282015
aaa(lp1060
(lp1061
g4
(g5
(S'S18'
I0
I1
tRp1062
(I3
S'|'
NNNI18
I1
I0
tbS'SOEPPKB12AB018418B'
tRp1063
ag4
(g5
(S'S5'
I0
I1
tRp1064
(I3
S'|'
NNNI5
I1
I0
tbS'Ec8or'
tRp1065
ag4
(g5
(S'S12'
I0
I1
tRp1066
(I3
S'|'
NNNI12
I1
I0
tbS'Cocain Ducks'
tRp1067
aa(lp1068
F0.33260105596802636
aF0.27460317478401952
aF0.036987079369586826
aF0.97316588847743246
aF0.02712914365199388
aaa(lp1069
(lp1070
g4
(g5
(S'S18'
I0
I1
tRp1071
(I3
S'|'
NNNI18
I1
I0
tbS'SOGKIWV12A6D4F86C4'
tRp1072
ag4
(g5
(S'S18'
I0
I1
tRp1073
(I3
S'|'
NNNI18
I1
I0
tbS'The New York Dolls'
tRp1074
ag4
(g5
(S'S11'
I0
I1
tRp1075
(I3
S'|'
NNNI11
I1
I0
tbS'Human Being'
tRp1076
aa(lp1077
F0.47647724775386607
aF0.51542658395030516
aF0.0024137441431208292
aF1
aF0.027517326712655575
aaa(lp1078
(lp1079
g4
(g5
(S'S18'
I0
I1
tRp1080
(I3
S'|'
NNNI18
I1
I0
tbS'SOPHYIS12AAF3B35A3'
tRp1081
ag4
(g5
(S'S12'
I0
I1
tRp1082
(I3
S'|'
NNNI12
I1
I0
tbS'Eliane Elias'
tRp1083
ag4
(g5
(S'S18'
I0
I1
tRp1084
(I3
S'|'
NNNI18
I1
I0
tbS'The More I See You'
tRp1085
aa(lp1086
F0.42538661420375423
aF0.33953373742078341
aF0.0025202328553173359
aF0.89266355390973007
aF0.02305969123272383
aaa(lp1087
(lp1088
g4
(g5
(S'S18'
I0
I1
tRp1089
(I3
S'|'
NNNI18
I1
I0
tbS'SOFHBAR12A6701D0FE'
tRp1090
ag4
(g5
(S'S9'
I0
I1
tRp1091
(I3
S'|'
NNNI9
I1
I0
tbS'Lost Boyz'
tRp1092
ag4
(g5
(S'S20'
I0
I1
tRp1093
(I3
S'|'
NNNI20
I1
I0
tbS'Certain Things We Do'
tRp1094
aa(lp1095
F0.40980554990997903
aF0.37440476549905433
aF0.0077381797529461876
aF0.89266355390973007
aF0.024622128051887134
aaa(lp1096
(lp1097
g4
(g5
(S'S18'
I0
I1
tRp1098
(I3
S'|'
NNNI18
I1
I0
tbS'SODHVES12A6701CE6B'
tRp1099
ag4
(g5
(S'S9'
I0
I1
tRp1100
(I3
S'|'
NNNI9
I1
I0
tbS'Chris Rea'
tRp1101
ag4
(g5
(S'S26'
I0
I1
tRp1102
(I3
S'|'
NNNI26
I1
I0
tbS'Driving Home For Christmas'
tRp1103
aa(lp1104
F0.49773382347981376
aF0.32003969476931926
aF0.019487434331960814
aF0.94633177695486503
aF0.028685110753479494
aaa(lp1105
(lp1106
g4
(g5
(S'S18'
I0
I1
tRp1107
(I3
S'|'
NNNI18
I1
I0
tbS'SOXIATP12AAF3B2184'
tRp1108
ag4
(g5
(S'S19'
I0
I1
tRp1109
(I3
S'|'
NNNI19
I1
I0
tbS'Perrey And Kingsley'
tRp1110
ag4
(g5
(S'S15'
I0
I1
tRp1111
(I3
S'|'
NNNI15
I1
I0
tbS'Spooks In Space'
tRp1112
aa(lp1113
F0.33641584697390081
aF0.094990078206541706
aF0.035141275024847367
aF0.70482477325175763
aF0.028668936459285255
aaa(lp1114
(lp1115
g4
(g5
(S'S18'
I0
I1
tRp1116
(I3
S'|'
NNNI18
I1
I0
tbS'SOGNQWU12A8AE4868F'
tRp1117
ag4
(g5
(S'S10'
I0
I1
tRp1118
(I3
S'|'
NNNI10
I1
I0
tbS'Eurythmics'
tRp1119
ag4
(g5
(S'S31'
I0
I1
tRp1120
(I3
S'|'
NNNI31
I1
I0
tbS'Tous Les Gar\xc3\xa7ons Et Les Filles'
tRp1121
aa(lp1122
F0.52060565667756797
aF0.2553075452152635
aF0.091686781201192682
aF0.70482477325175763
aF0.03176146150922339
aaa(lp1123
(lp1124
g4
(g5
(S'S18'
I0
I1
tRp1125
(I3
S'|'
NNNI18
I1
I0
tbS'SOMZCVH12AB0182B8E'
tRp1126
ag4
(g5
(S'S13'
I0
I1
tRp1127
(I3
S'|'
NNNI13
I1
I0
tbS'Suzanne Ciani'
tRp1128
ag4
(g5
(S'S6'
I0
I1
tRp1129
(I3
S'|'
NNNI6
I1
I0
tbS'Stream'
tRp1130
aa(lp1131
F0.3784557645560902
aF0.31706349852869742
aF0.011039329831037909
aF0.89266355390973007
aF0.0076245622831633665
aaa(lp1132
(lp1133
g4
(g5
(S'S18'
I0
I1
tRp1134
(I3
S'|'
NNNI18
I1
I0
tbS'SONXJBL12AAF3B2C0C'
tRp1135
ag4
(g5
(S'S13'
I0
I1
tRp1136
(I3
S'|'
NNNI13
I1
I0
tbS'Vickie Winans'
tRp1137
ag4
(g5
(S'S12'
I0
I1
tRp1138
(I3
S'|'
NNNI12
I1
I0
tbS'Make Me Over'
tRp1139
aa(lp1140
F0.3945116942692542
aF0.29682540206989905
aF0.011997728240806475
aF1
aF0.028434409193468818
aaa(lp1141
(lp1142
g4
(g5
(S'S18'
I0
I1
tRp1143
(I3
S'|'
NNNI18
I1
I0
tbS'SOYWZTU12AB0180E26'
tRp1144
ag4
(g5
(S'S13'
I0
I1
tRp1145
(I3
S'|'
NNNI13
I1
I0
tbS'The Berzerker'
tRp1146
ag4
(g5
(S'S13'
I0
I1
tRp1147
(I3
S'|'
NNNI13
I1
I0
tbS'Deform (live)'
tRp1148
aa(lp1149
F0.45485119949462399
aF0.17658730181335774
aF0.077062331392872344
aF0.73165888477432506
aF0.032419755282928835
aaa(lp1150
(lp1151
g4
(g5
(S'S18'
I0
I1
tRp1152
(I3
S'|'
NNNI18
I1
I0
tbS'SOLGHDZ12AB0183B11'
tRp1153
ag4
(g5
(S'S13'
I0
I1
tRp1154
(I3
S'|'
NNNI13
I1
I0
tbS'Kings Of Leon'
tRp1155
ag4
(g5
(S'S12'
I0
I1
tRp1156
(I3
S'|'
NNNI12
I1
I0
tbS'Wicker Chair'
tRp1157
aa(lp1158
F0.78414656298125385
aF0.21894840952232408
aF0.011642765866818118
aF0.70482477325175763
aF0.032929245550047309
aaa(lp1159
(lp1160
g4
(g5
(S'S18'
I0
I1
tRp1161
(I3
S'|'
NNNI18
I1
I0
tbS'SOTNTNJ12AAA15FBD6'
tRp1162
ag4
(g5
(S'S11'
I0
I1
tRp1163
(I3
S'|'
NNNI11
I1
I0
tbS'Edith Lefel'
tRp1164
ag4
(g5
(S'S12'
I0
I1
tRp1165
(I3
S'|'
NNNI12
I1
I0
tbS"An ti chans'"
tRp1166
aa(lp1167
F0.2982741554893189
aF0.38715278232715744
aF0.010613374982251881
aF0.70482477325175763
aF0.034981763483295999
aaa(lp1168
(lp1169
g4
(g5
(S'S18'
I0
I1
tRp1170
(I3
S'|'
NNNI18
I1
I0
tbS'SOPIKEG12A58291636'
tRp1171
ag4
(g5
(S'S4'
I0
I1
tRp1172
(I3
S'|'
NNNI4
I1
I0
tbS'NOFX'
tRp1173
ag4
(g5
(S'S17'
I0
I1
tRp1174
(I3
S'|'
NNNI17
I1
I0
tbS'Stickin In My Eye'
tRp1175
aa(lp1176
F0.55101736260375378
aF0.13650793506117725
aF0.0084126082635240657
aF0.81216121934202756
aF0.029888478241530736
aaa(lp1177
(lp1178
g4
(g5
(S'S18'
I0
I1
tRp1179
(I3
S'|'
NNNI18
I1
I0
tbS'SOSBDSF12AB0189007'
tRp1180
ag4
(g5
(S'S11'
I0
I1
tRp1181
(I3
S'|'
NNNI11
I1
I0
tbS'Soda Stereo'
tRp1182
ag4
(g5
(S'S16'
I0
I1
tRp1183
(I3
S'|'
NNNI16
I1
I0
tbS'Entre Can\xc3\xadbales'
tRp1184
aa(lp1185
F0.46406950731409446
aF0.33055555017541965
aF0.011429788442425103
aF0.89266355390973007
aF0.026951226415857274
aaa(lp1186
(lp1187
g4
(g5
(S'S18'
I0
I1
tRp1188
(I3
S'|'
NNNI18
I1
I0
tbS'SOHMMMC12AB0181C42'
tRp1189
ag4
(g5
(S'S9'
I0
I1
tRp1190
(I3
S'|'
NNNI9
I1
I0
tbS'Xcultures'
tRp1191
ag4
(g5
(S'S14'
I0
I1
tRp1192
(I3
S'|'
NNNI14
I1
I0
tbS'Sudanese Dance'
tRp1193
aa(lp1194
F0.26470243270325089
aF0.3814980189643335
aF0.077275308817265367
aF0.73165888477432506
aF0.032285508641116671
aaa(lp1195
(lp1196
g4
(g5
(S'S18'
I0
I1
tRp1197
(I3
S'|'
NNNI18
I1
I0
tbS'SOVJXVJ12A8C13517D'
tRp1198
ag4
(g5
(S'S11'
I0
I1
tRp1199
(I3
S'|'
NNNI11
I1
I0
tbS'White Heart'
tRp1200
ag4
(g5
(S'S55'
I0
I1
tRp1201
(I3
S'|'
NNNI55
I1
I0
tbS'Where The Thunder Roars (Tales Of Wonder Album Version)'
tRp1202
aa(lp1203
F0.33551367831205764
aF0.42956348855962201
aF0.6777296606559704
aF0.8389953308645951
aF0.026312341795184914
aaa(lp1204
(lp1205
g4
(g5
(S'S18'
I0
I1
tRp1206
(I3
S'|'
NNNI18
I1
I0
tbS'SOFZCTA12AB0188D8F'
tRp1207
ag4
(g5
(S'S17'
I0
I1
tRp1208
(I3
S'|'
NNNI17
I1
I0
tbS'Heavy D / McGruff'
tRp1209
ag4
(g5
(S'S17'
I0
I1
tRp1210
(I3
S'|'
NNNI17
I1
I0
tbS'Wanna Be A Player'
tRp1211
aa(lp1212
F0.3615199708856629
aF0.1685516004467513
aF0.0058568791708078945
aF0.8389953308645951
aF0.027666130219242552
aaa(lp1213
(lp1214
g4
(g5
(S'S18'
I0
I1
tRp1215
(I3
S'|'
NNNI18
I1
I0
tbS'SOKBBXO12A6701DEA0'
tRp1216
ag4
(g5
(S'S15'
I0
I1
tRp1217
(I3
S'|'
NNNI15
I1
I0
tbS'Nine Inch Nails'
tRp1218
ag4
(g5
(S'S5'
I0
I1
tRp1219
(I3
S'|'
NNNI5
I1
I0
tbS'Metal'
tRp1220
aa(lp1221
F0.59492348588364785
aF0.67271825619490688
aF0.010151923896067016
aF0.70482477325175763
aF0.021536072719626695
aaa(lp1222
(lp1223
g4
(g5
(S'S18'
I0
I1
tRp1224
(I3
S'|'
NNNI18
I1
I0
tbS'SOWHYUG12A58A77FAB'
tRp1225
ag4
(g5
(S'S25'
I0
I1
tRp1226
(I3
S'|'
NNNI25
I1
I0
tbS'Nick Cave & The Bad Seeds'
tRp1227
ag4
(g5
(S'S37'
I0
I1
tRp1228
(I3
S'|'
NNNI37
I1
I0
tbS'She Fell Away (2009 Digital Remaster)'
tRp1229
aa(lp1230
F0.47657587793361611
aF0.37341270008551375
aF0.13804486724407211
aF0.94633177695486503
aF0.023476988022935148
aaa(lp1231
(lp1232
g4
(g5
(S'S18'
I0
I1
tRp1233
(I3
S'|'
NNNI18
I1
I0
tbS'SOYSTDI12A6D4F6500'
tRp1234
ag4
(g5
(S'S12'
I0
I1
tRp1235
(I3
S'|'
NNNI12
I1
I0
tbS'Nadine Renee'
tRp1236
ag4
(g5
(S'S9'
I0
I1
tRp1237
(I3
S'|'
NNNI9
I1
I0
tbS'Next Time'
tRp1238
aa(lp1239
F0.13842487795898867
aF0.33571429032583083
aF0.022966065597046715
aF0.7584929962968926
aF0.031657946026380272
aaa(lp1240
(lp1241
g4
(g5
(S'S18'
I0
I1
tRp1242
(I3
S'|'
NNNI18
I1
I0
tbS'SOOOROX12A6D4F8400'
tRp1243
ag4
(g5
(S'S11'
I0
I1
tRp1244
(I3
S'|'
NNNI11
I1
I0
tbS'Lesley Gore'
tRp1245
ag4
(g5
(S'S13'
I0
I1
tRp1246
(I3
S'|'
NNNI13
I1
I0
tbS"It's My Party"
tRp1247
aa(lp1248
F0.38680240953153333
aF0.12127976419358023
aF0.00812863836433338
aF0.94633177695486503
aF0.027779350278602212
aaa(lp1249
(lp1250
g4
(g5
(S'S18'
I0
I1
tRp1251
(I3
S'|'
NNNI18
I1
I0
tbS'SONSPZE12AB01819CE'
tRp1252
ag4
(g5
(S'S9'
I0
I1
tRp1253
(I3
S'|'
NNNI9
I1
I0
tbS'Smartbomb'
tRp1254
ag4
(g5
(S'S13'
I0
I1
tRp1255
(I3
S'|'
NNNI13
I1
I0
tbS'Complicate It'
tRp1256
aa(lp1257
F0.32058022885557497
aF0.30505953550792864
aF0.013701547635950589
aF0.70482477325175763
aF0.038184273733754936
aaa(lp1258
(lp1259
g4
(g5
(S'S18'
I0
I1
tRp1260
(I3
S'|'
NNNI18
I1
I0
tbS'SOHWGFU12AB017B036'
tRp1261
ag4
(g5
(S'S7'
I0
I1
tRp1262
(I3
S'|'
NNNI7
I1
I0
tbS'Suburbs'
tRp1263
ag4
(g5
(S'S12'
I0
I1
tRp1264
(I3
S'|'
NNNI12
I1
I0
tbS'Monde De Fou'
tRp1265
aa(lp1266
F0.33366918822810399
aF0.21765873397907878
aF0.0037980974016754224
aF0.73165888477432506
aF0.03533436309673036
aaa(lp1267
(lp1268
g4
(g5
(S'S18'
I0
I1
tRp1269
(I3
S'|'
NNNI18
I1
I0
tbS'SODRHHD12AB0189F2A'
tRp1270
ag4
(g5
(S'S12'
I0
I1
tRp1271
(I3
S'|'
NNNI12
I1
I0
tbS'Julien Clerc'
tRp1272
ag4
(g5
(S'S18'
I0
I1
tRp1273
(I3
S'|'
NNNI18
I1
I0
tbS'This Melody (Live)'
tRp1274
aa(lp1275
F0.36223255098262863
aF0.37981151725567192
aF0.098502058781769125
aF0.7584929962968926
aF0.026357629818928776
aaa(lp1276
(lp1277
g4
(g5
(S'S18'
I0
I1
tRp1278
(I3
S'|'
NNNI18
I1
I0
tbS'SOQGFVO12A8C13C8C3'
tRp1279
ag4
(g5
(S'S13'
I0
I1
tRp1280
(I3
S'|'
NNNI13
I1
I0
tbS'Glen Campbell'
tRp1281
ag4
(g5
(S'S18'
I0
I1
tRp1282
(I3
S'|'
NNNI18
I1
I0
tbS"I'm Gone This Time"
tRp1283
aa(lp1284
F0.47818289274305464
aF0.13318453016735252
aF0.0077381797529461876
aF0.73165888477432506
aF0.024149838661415408
aaa(lp1285
(lp1286
g4
(g5
(S'S18'
I0
I1
tRp1287
(I3
S'|'
NNNI18
I1
I0
tbS'SORABMD12A8C136672'
tRp1288
ag4
(g5
(S'S13'
I0
I1
tRp1289
(I3
S'|'
NNNI13
I1
I0
tbS'T.G. Sheppard'
tRp1290
ag4
(g5
(S'S22'
I0
I1
tRp1291
(I3
S'|'
NNNI22
I1
I0
tbS'You Feel Good All Over'
tRp1292
aa(lp1293
F0.34125416117944202
aF0.23070436093688654
aF0.0031591651284963791
aF0.8389953308645951
aF0.017282233346542338
aaa(lp1294
(lp1295
g4
(g5
(S'S18'
I0
I1
tRp1296
(I3
S'|'
NNNI18
I1
I0
tbS'SOTUBVH12AB018D2EC'
tRp1297
ag4
(g5
(S'S12'
I0
I1
tRp1298
(I3
S'|'
NNNI12
I1
I0
tbS'Slim Whitman'
tRp1299
ag4
(g5
(S'S16'
I0
I1
tRp1300
(I3
S'|'
NNNI16
I1
I0
tbS'Indian Love Call'
tRp1301
aa(lp1302
F0.38438508859607656
aF0.23412698186642286
aF0.0058568791708078945
aF0.78532710781946014
aF0.023106596685887118
aaa(lp1303
(lp1304
g4
(g5
(S'S18'
I0
I1
tRp1305
(I3
S'|'
NNNI18
I1
I0
tbS'SOKLLOH12A67020F2C'
tRp1306
ag4
(g5
(S'S23'
I0
I1
tRp1307
(I3
S'|'
NNNI23
I1
I0
tbS'Queens Of The Stone Age'
tRp1308
ag4
(g5
(S'S12'
I0
I1
tRp1309
(I3
S'|'
NNNI12
I1
I0
tbS'I Never Came'
tRp1310
aa(lp1311
F0.54915031305275064
aF0.40977183577845322
aF0.0040110748260684366
aF0.7584929962968926
aF0.029277089920988573
aaa(lp1312
(lp1313
g4
(g5
(S'S18'
I0
I1
tRp1314
(I3
S'|'
NNNI18
I1
I0
tbS'SONRLQH12AB017C232'
tRp1315
ag4
(g5
(S'S40'
I0
I1
tRp1316
(I3
S'|'
NNNI40
I1
I0
tbS'Hank Penny & The Lincoln Penny Orchestra'
tRp1317
ag4
(g5
(S'S5'
I0
I1
tRp1318
(I3
S'|'
NNNI5
I1
I0
tbS'Dixie'
tRp1319
aa(lp1320
F0.34554566808795051
aF0.096081359655793841
aF0.035531733636234554
aF0.89266355390973007
aF0.021958221798096283
aaa(lp1321
(lp1322
g4
(g5
(S'S18'
I0
I1
tRp1323
(I3
S'|'
NNNI18
I1
I0
tbS'SORENXV12A6701F61F'
tRp1324
ag4
(g5
(S'S8'
I0
I1
tRp1325
(I3
S'|'
NNNI8
I1
I0
tbS'Borialis'
tRp1326
ag4
(g5
(S'S9'
I0
I1
tRp1327
(I3
S'|'
NNNI9
I1
I0
tbS'Hourglass'
tRp1328
aa(lp1329
F0.41892585934859783
aF0.31651785780407132
aF0.0064603152065881011
aF0.7584929962968926
aF0.033170242533541443
aaa(lp1330
(lp1331
g4
(g5
(S'S18'
I0
I1
tRp1332
(I3
S'|'
NNNI18
I1
I0
tbS'SOYMMDY12AB01825B2'
tRp1333
ag4
(g5
(S'S16'
I0
I1
tRp1334
(I3
S'|'
NNNI16
I1
I0
tbS'The Dirty Skirts'
tRp1335
ag4
(g5
(S'S4'
I0
I1
tRp1336
(I3
S'|'
NNNI4
I1
I0
tbS'Wake'
tRp1337
aa(lp1338
F0.40179475589339303
aF0.25471230596713912
aF0.0034076387902882295
aF0.70482477325175763
aF0.034546674969471017
aaa(lp1339
(lp1340
g4
(g5
(S'S18'
I0
I1
tRp1341
(I3
S'|'
NNNI18
I1
I0
tbS'SOOVOKS12AB017EE57'
tRp1342
ag4
(g5
(S'S5'
I0
I1
tRp1343
(I3
S'|'
NNNI5
I1
I0
tbS'B\xc3\xa9zu'
tRp1344
ag4
(g5
(S'S13'
I0
I1
tRp1345
(I3
S'|'
NNNI13
I1
I0
tbS'Le tortillard'
tRp1346
aa(lp1347
F0.14810544348934845
aF0.40451389858104547
aF0.014092006247337783
aF0.9194976654322975
aF0.027776115419763367
aaa(lp1348
(lp1349
g4
(g5
(S'S18'
I0
I1
tRp1350
(I3
S'|'
NNNI18
I1
I0
tbS'SOGYYLE12A8C13E5EA'
tRp1351
ag4
(g5
(S'S18'
I0
I1
tRp1352
(I3
S'|'
NNNI18
I1
I0
tbS'Solistiyhtye Suomi'
tRp1353
ag4
(g5
(S'S11'
I0
I1
tRp1354
(I3
S'|'
NNNI11
I1
I0
tbS'Ter\xc3\xa4slintu'
tRp1355
aa(lp1356
F0.31593369256708176
aF0.11671628228000845
aF0.15763879028822944
aF0.81216121934202756
aF0.02171722481460215
aaa(lp1357
(lp1358
g4
(g5
(S'S18'
I0
I1
tRp1359
(I3
S'|'
NNNI18
I1
I0
tbS'SOITUXQ12AB0183AE9'
tRp1360
ag4
(g5
(S'S12'
I0
I1
tRp1361
(I3
S'|'
NNNI12
I1
I0
tbS'Eddie Cantor'
tRp1362
ag4
(g5
(S'S30'
I0
I1
tRp1363
(I3
S'|'
NNNI30
I1
I0
tbS"Now's The Time To Fall In Love"
tRp1364
aa(lp1365
F0.32913442081589528
aF0.15758930136302138
aF0.0054664205594207012
aF1
aF0.020308443790284098
aaa(lp1366
(lp1367
g4
(g5
(S'S18'
I0
I1
tRp1368
(I3
S'|'
NNNI18
I1
I0
tbS'SOUVRGZ12A58A77F90'
tRp1369
ag4
(g5
(S'S11'
I0
I1
tRp1370
(I3
S'|'
NNNI11
I1
I0
tbS'Kai Winding'
tRp1371
ag4
(g5
(S'S6'
I0
I1
tRp1372
(I3
S'|'
NNNI6
I1
I0
tbS'Mangos'
tRp1373
aa(lp1374
F0.31448533964088665
aF0.28645834223429351
aF0.010329405083061195
aF0.70482477325175763
aF0.019130955172943637
aaa(lp1375
(lp1376
g4
(g5
(S'S18'
I0
I1
tRp1377
(I3
S'|'
NNNI18
I1
I0
tbS'SOBLTSM12A6D4F9EEA'
tRp1378
ag4
(g5
(S'S13'
I0
I1
tRp1379
(I3
S'|'
NNNI13
I1
I0
tbS'Sonny Simmons'
tRp1380
ag4
(g5
(S'S15'
I0
I1
tRp1381
(I3
S'|'
NNNI15
I1
I0
tbS'A Distant Voice'
tRp1382
aa(lp1383
F0.31595647657328418
aF0.70376983717822528
aF0.0081641346017322161
aF0.73165888477432506
aF0.021453583819236084
aaa.