(lp1
(lp2
F0.36484949981255305
aF0.14141795198138096
aF0.65523102729845906
acnumpy.core.multiarray
_reconstruct
p3
(cnumpy
ndarray
p4
(I0
tS'b'
tRp5
(I1
(I1
tcnumpy
dtype
p6
(S'i4'
I0
I1
tRp7
(I3
S'<'
NNNI-1
I-1
I0
tbI00
S'\x01\x00\x00\x00'
tbaF0.9800895968143355
aa(lp8
F0.34860573982360255
aF0.30476857981452748
aF0.22948078384641002
aF1
aF0.98656047784967649
aa(lp9
F0.74777653361220187
aF0.25176907714647268
aF0.22629461720697869
ag3
(g4
(I0
tS'b'
tRp10
(I1
(I0
tg7
I00
S''
tbaF0.99900447984071672
aa(lp11
F0.43558606775714764
aF0.3685657522222478
aF0.13214931778409167
ag3
(g4
(I0
tS'b'
tRp12
(I1
(I0
tg7
I00
S''
tbaF0.98755599800895966
aa(lp13
F0.025704899271916496
aF0.44279291828779754
aF0.47605289304923865
ag3
(g4
(I0
tS'b'
tRp14
(I1
(I1
tg7
I00
S'\x01\x00\x00\x00'
tbaF0.98855151816824294
aa(lp15
F0.16050763599771117
aF0.79844990848606301
aF0.43649754469275953
aF1.25
aF0.98904927824788447
aa(lp16
F0.45300753734140997
aF0.40323687058455282
aF0.1952724344296683
ag3
(g4
(I0
tS'b'
tRp17
(I1
(I0
tg7
I00
S''
tbaF0.99751119960179191
aa(lp18
F0.2693292358082911
aF0.25333332644412559
aF0.20476114263409417
aF1
aF0.99751119960179191
aa(lp19
F0.79889036325250096
aF0.099808025514604562
aF0.73080883829771603
ag3
(g4
(I0
tS'b'
tRp20
(I1
(I0
tg7
I00
S''
tbaF0.9880537580886013
aa(lp21
F0.19227373177324836
aF0.21465556309805542
aF0.33600932823003865
ag3
(g4
(I0
tS'b'
tRp22
(I1
(I0
tg7
I00
S''
tbaF0.99800895968143355
aa(lp23
F0.067551202620311362
aF0.17989756482054226
aF0.59732442172501177
ag3
(g4
(I0
tS'b'
tRp24
(I1
(I0
tg7
I00
S''
tbaF0.99402687904430065
aa(lp25
F0.45475128746473037
aF0.15124158555822836
aF0.10513541766052976
ag3
(g4
(I0
tS'b'
tRp26
(I1
(I0
tg7
I00
S''
tbaF0.97610751617720259
aa(lp27
F0.27544715968508909
aF0.50197488343676455
aF0.074076214399184437
ag3
(g4
(I0
tS'b'
tRp28
(I1
(I1
tg7
I00
S'\x01\x00\x00\x00'
tbaF0.98158287705326031
aa(lp29
F0.78731797912432666
aF0.1617449189572164
aF0.31444263856152954
ag3
(g4
(I0
tS'b'
tRp30
(I1
(I0
tg7
I00
S''
tbaF0.9776007964161274
aa(lp31
F0.81242724097788122
aF0.11353276393008066
aF0.090122852101543374
ag3
(g4
(I0
tS'b'
tRp32
(I1
(I0
tg7
I00
S''
tbaF0.99153807864609256
aa(lp33
F0.32718622363410349
aF0.43504266184206758
aF0.1741896557917342
ag3
(g4
(I0
tS'b'
tRp34
(I1
(I0
tg7
I00
S''
tbaF0.99402687904430065
aa(lp35
F0.86930013219944358
aF0.22660710546270788
aF0.0016312782745798776
ag3
(g4
(I0
tS'b'
tRp36
(I1
(I0
tg7
I00
S''
tbaF0.99900447984071672
aa(lp37
F0.86452270081490101
aF0.030027217219849606
aF0.20717411381860978
ag3
(g4
(I0
tS'b'
tRp38
(I1
(I0
tg7
I00
S''
tbaF0.99701343952215027
aa(lp39
F0.029295988634794105
aF0.20424514857585885
aF0.083848809385758685
aF1
aF0.99303135888501737
aa(lp40
F0.68170764191708921
aF0.38750796150531447
aF0.91479443384043857
aF1
aF0.99751119960179191
aa(lp41
F0.50928602434837511
aF0.33442652135271217
aF0.41574742468946158
ag3
(g4
(I0
tS'b'
tRp42
(I1
(I1
tg7
I00
S'\x01\x00\x00\x00'
tbaF0.99153807864609256
aa(lp43
F0.70362167281624277
aF0.22115659460192599
aF0.36117815765615352
ag3
(g4
(I0
tS'b'
tRp44
(I1
(I1
tg7
I00
S'\x01\x00\x00\x00'
tbaF0.99651567944250874
aa(lp45
F0.28296846944614351
aF0.1896663365422219
aF0.90660519285383434
ag3
(g4
(I0
tS'b'
tRp46
(I1
(I1
tg7
I00
S'\x01\x00\x00\x00'
tbaF0.99850671976107519
aa(lp47
F0.61701377241964439
aF0.27378310661754401
aF0.038914460945109433
ag3
(g4
(I0
tS'b'
tRp48
(I1
(I0
tg7
I00
S''
tbaF0.99303135888501737
aa(lp49
F0.085939503956117672
aF0.5100304594473245
aF0.15798392313287404
aF1
aF0.98257839721254359
aa(lp50
F0.39162235354472091
aF0.34004340362250818
aF0.41029466231481632
aF1
aF1
aa(lp51
F0.01186958623547286
aF0.37231838173606874
aF0.48615069487495238
aF1
aF0.99402687904430065
aa(lp52
F0.62907450523864961
aF0.24613418362319869
aF0.11476809166323193
aF1
aF0.9840716774514684
aa(lp53
F0.015110445729168722
aF0.314380718276632
aF0.24383083849761286
aF1
aF0.98855151816824294
aa(lp54
F0.75485635642548488
aF0.090182807646654733
aF0.41946081377877498
ag3
(g4
(I0
tS'b'
tRp55
(I1
(I0
tg7
I00
S''
tbaF0.97859631657541069
aa(lp56
F0.3379372940549713
aF0.2575106788457604
aF0.066963454687335347
aF1.2222222222222223
aF0.9880537580886013
aa(lp57
F0.018046703892977644
aF0.43687509773651501
aF0.19722059690103111
ag3
(g4
(I0
tS'b'
tRp58
(I1
(I0
tg7
I00
S''
tbaF0.99303135888501737
aa(lp59
F0.041475109015212799
aF0.29511884408979366
aF0.16313056082932237
aF1.1111111111111112
aF0.99402687904430065
aa(lp60
F0.54816400623507822
aF0.21652720549397914
aF0.2489415039864798
aF1.2
aF0.99701343952215027
aa(lp61
F0.12307126931197096
aF0.13705294272484453
aF0.11882409796663193
aF1.3999999999999999
aF0.99153807864609256
aa(lp62
F0.62252496004419799
aF0.3298102018548047
aF0.33365549118094651
aF1
aF0.99054255848680939
aa(lp63
F0.26983978216688698
aF0.018747443246036818
aF0.024680458991979282
ag3
(g4
(I0
tS'b'
tRp64
(I1
(I0
tg7
I00
S''
tbaF0.9880537580886013
aa(lp65
F0.56925918983445478
aF0.37242385712537185
aF0.693532697257629
ag3
(g4
(I0
tS'b'
tRp66
(I1
(I0
tg7
I00
S''
tbaF0.99552015928322546
aa(lp67
F0.51553466782423396
aF0.16813605547475641
aF0.74484531896521688
ag3
(g4
(I0
tS'b'
tRp68
(I1
(I0
tg7
I00
S''
tbaF0.99402687904430065
aa(lp69
F0.43590670073597598
aF0.29074934680770748
aF0.33583188911467615
aF1
aF0.99751119960179191
aa(lp70
F0.013071959906079201
aF0.66153687813293749
aF0.59552175995212087
aF1.9166666666666667
aF0.99552015928322546
aa(lp71
F0.027050324579230876
aF0.12194955061046718
aF0.48104603219488667
ag3
(g4
(I0
tS'b'
tRp72
(I1
(I1
tg7
I00
S'\x01\x00\x00\x00'
tbaF0.97710303633648576
aa(lp73
F0.77514872437402582
aF0.3019290171332169
aF0.28842063009811525
ag3
(g4
(I0
tS'b'
tRp74
(I1
(I0
tg7
I00
S''
tbaF0.9960179193628671
aa(lp75
F0.53134187368047192
aF0.20330718116152668
aF0.27101190849747497
ag3
(g4
(I0
tS'b'
tRp76
(I1
(I0
tg7
I00
S''
tbaF0.99800895968143355
aa(lp77
F0.24136510723939938
aF0.21697995532909403
aF0.27866257939205041
ag3
(g4
(I0
tS'b'
tRp78
(I1
(I0
tg7
I00
S''
tbaF0.99651567944250874
aa(lp79
F0.83581371717211583
aF0.23283824879801868
aF0.028883209153377838
ag3
(g4
(I0
tS'b'
tRp80
(I1
(I0
tg7
I00
S''
tbaF0.99054255848680939
aa(lp81
F0.34879565320337008
aF0.08669651374303261
aF0.025736147290588447
aF1.4285714285714286
aF0.99502239920358382
aa(lp82
F0.26631035299224559
aF0.41074178563986979
aF0.58641593593727459
aF1.8333333333333333
aF0.99800895968143355
aa(lp83
F0.007816045460823583
aF0.3935677220598337
aF0.2441756901742767
aF1.2857142857142858
aF0.99054255848680939
aa(lp84
F0.0044210354965371641
aF0.098678756073793603
aF0.20890136426671826
aF1
aF0.9960179193628671
aa(lp85
F0.60436110179357161
aF0.28133240941178406
aF0.67578259022548437
ag3
(g4
(I0
tS'b'
tRp86
(I1
(I0
tg7
I00
S''
tbaF0.97610751617720259
aa.