(lp1
(lp2
F0.2808459974391137
aF0.24067380014686116
aF0.27544821667126534
aF0.4634540094189214
aF0
aa(lp3
F0.14545328326338941
aF0.15939820822009812
aF0.14141795198138096
aF0.65523102729845906
aF0.9800895968143355
aa(lp4
F0.20091844916562726
aF0.66473892720928252
aF0.19200800513240723
aF0.31607290462161985
aF0
aa(lp5
F0.31011442546366796
aF0.15291229162102926
aF0.30476857981452748
aF0.22948078384641002
aF0.98656047784967649
aa(lp6
F0.25719007646194747
aF0.16821693863428003
aF0.25176907714647268
aF0.22629461720697869
aF0.99900447984071672
aa(lp7
F0.35826824828613985
aF0.38295875862888895
aF0.35277018725045989
aF0.14214872315703617
aF0
aa(lp8
F0.089036947792764817
aF0.77013207584557575
aF0.079536795075143427
aF0.2606952938183974
aF0
aa(lp9
F0.21612356186522361
aF0.18146351829428248
aF0.21215600634853274
aF0.1662266330753869
aF0
aa(lp10
F0.36363530708041664
aF0.18644049825327663
aF0.3685657522222478
aF0.13214931778409167
aF0.98755599800895966
aa(lp11
F0.36290467236141505
aF0.52051997824461349
aF0.36094829333859579
aF1
aF0
aa(lp12
F0.2737556866266132
aF0.59351359930265368
aF0.2658316717668065
aF0.12117920815597034
aF0
aa(lp13
F0.32319551688134074
aF0.10005370298895919
aF0.31890811931079099
aF0.42096281759951043
aF0
aa(lp14
F0.29167394023626164
aF0.06136987059751519
aF0.28732675620778841
aF0.7562209681622315
aF0
aa(lp15
F0.23273157252882179
aF1
aF0.22456696886516858
aF0.52501113355835682
aF0
aa(lp16
F0.44700383166531937
aF0.15331441048477459
aF0.44279291828779754
aF0.47605289304923865
aF0.98855151816824294
aa(lp17
F0.79894291099961934
aF0.19418697444546329
aF0.79844990848606301
aF0.43649754469275953
aF0.98904927824788447
aa(lp18
F0.293614658532314
aF0.19792446949632331
aF0.28845700316386408
aF0.44024784252908106
aF0
aa(lp19
F1
aF0.094097842027169337
aF1
aF0.44112681804151449
aF0
aa(lp20
F0.40624019670532213
aF0.29739601095626017
aF0.40323687058455282
aF0.1952724344296683
aF0.99751119960179191
aa(lp21
F0.17426626613072538
aF0.18171510680285918
aF0.16822129026043853
aF0.38082395103400457
aF0
aa(lp22
F0.1454216530837722
aF0.12879786766293272
aF0.14030964278870409
aF0.45555453169693327
aF0
aa(lp23
F0.28027345308091767
aF0.95059745311845412
aF0.27238289989177544
aF0.4054824511935709
aF0
aa(lp24
F0.34755193542992729
aF0.20392626842976372
aF0.34175825393577969
aF0.086552067826047643
aF0
aa(lp25
F0.25964871864826028
aF0.1145338246051912
aF0.25333332644412559
aF0.20476114263409417
aF0.99751119960179191
aa(lp26
F0.10420420704936263
aF0.13201324408688372
aF0.099808025514604562
aF0.73080883829771603
aF0.9880537580886013
aa(lp27
F0.29963830093932986
aF0.53105862209193311
aF0.29186698996882771
aF0.064622584093035437
aF0
aa(lp28
F0.50344696772130915
aF0.25900489444048713
aF0.50137517829204392
aF0.7026826465743321
aF0
aa(lp29
F0.2237082967222106
aF0.51580069030588316
aF0.21465556309805542
aF0.33600932823003865
aF0.99800895968143355
aa(lp30
F0.18655399992782171
aF0.17742022037355062
aF0.17989756482054226
aF0.59732442172501177
aF0.99402687904430065
aa(lp31
F0.1525354603407427
aF0.28321746012008642
aF0.15124158555822836
aF0.10513541766052976
aF0.97610751617720259
aa(lp32
F0.50457380425521958
aF0.18902103889792168
aF0.50197488343676455
aF0.074076214399184437
aF0.98158287705326031
aa(lp33
F0.77232145015390774
aF0.20581554287038006
aF0.77180633673400556
aF0.26063811200077158
aF0
aa(lp34
F0.1702744011903338
aF0.81501398755723842
aF0.1617449189572164
aF0.31444263856152954
aF0.9776007964161274
aa(lp35
F0.1226908223367953
aF0.40698019763023097
aF0.11353276393008066
aF0.090122852101543374
aF0.99153807864609256
aa(lp36
F0.1935080107569481
aF0.75292145907957275
aF0.18612568282718969
aF0.37918520809526557
aF0
aa(lp37
F0.4404878625617254
aF0.30955194710758882
aF0.43504266184206758
aF0.1741896557917342
aF0.99402687904430065
aa(lp38
F0.70623843407694309
aF0.16649751013193831
aF0.70545248854839449
aF0.085294827163372361
aF0
aa(lp39
F0.42800237934992302
aF0.20644351505282657
aF0.42345489682938214
aF0.14462403024286224
aF0
aa(lp40
F0.11166350991658913
aF0.29831343608911981
aF0.10282713535593382
aF0.036069386118621864
aF0
aa(lp41
F0.71651750756041777
aF0.13432675730863533
aF0.72086423450538495
aF0.30731748265033404
aF0
aa(lp42
F0.22511404820870193
aF0.17503534641924337
aF0.22660710546270788
aF0.0016312782745798776
aF0.99900447984071672
aa(lp43
F0.034749323797484924
aF0.15007268160053563
aF0.030027217219849606
aF0.20717411381860978
aF0.99701343952215027
aa(lp44
F0.37898830598470395
aF0.88964107712960439
aF0.37208493281064309
aF0.17824989933305502
aF0
aa(lp45
F0.28894496557632243
aF0.21619261491502045
aF0.28640964616482523
aF0.64221261506169691
aF0
aa(lp46
F0.21033096348184757
aF0.15897322620239066
aF0.20424514857585885
aF0.083848809385758685
aF0.99303135888501737
aa(lp47
F0.38849124549797248
aF0.053833170031409881
aF0.38750796150531447
aF0.91479443384043857
aF0.99751119960179191
aa(lp48
F0.33766774379836417
aF0.16388159541054723
aF0.33442652135271217
aF0.41574742468946158
aF0.99153807864609256
aa(lp49
F0.22249321444116998
aF0.091649090144754267
aF0.22115659460192599
aF0.36117815765615352
aF0.99651567944250874
aa(lp50
F0.19526550369322429
aF0.17472201671521545
aF0.1896663365422219
aF0.90660519285383434
aF0.99850671976107519
aa(lp51
F0.27755601658967649
aF0.19232252271869602
aF0.27378310661754401
aF0.038914460945109433
aF0.99303135888501737
aa(lp52
F0.51617334171799933
aF0.58247571787660601
aF0.5100304594473245
aF0.15798392313287404
aF0.98257839721254359
aa(lp53
F0.34107917294068335
aF0.085532302994337894
aF0.34004340362250818
aF0.41029466231481632
aF1
aa(lp54
F0.37218564036621343
aF0.080823938665435427
aF0.37231838173606874
aF0.48615069487495238
aF0.99402687904430065
aa(lp55
F0.25418113303941325
aF0.23755588440964798
aF0.24613418362319869
aF0.11476809166323193
aF0.9840716774514684
aa(lp56
F0.21640446632376278
aF0.1736959567349293
aF0.21005843931417484
aF0.20833023082441279
aF0
aa(lp57
F0.31890842295712174
aF0.17037693526632919
aF0.314380718276632
aF0.24383083849761286
aF0.98855151816824294
aa(lp58
F0.092554047342647078
aF0.15440754117201658
aF0.090182807646654733
aF0.41946081377877498
aF0.97859631657541069
aa(lp59
F0.25349933628786614
aF0.08323947336908788
aF0.2575106788457604
aF0.066963454687335347
aF0.9880537580886013
aa(lp60
F0.43634910934787163
aF0.18294986059429766
aF0.43687509773651501
aF0.19722059690103111
aF0.99303135888501737
aa(lp61
F0.30246486937853018
aF0.69114023075241093
aF0.29511884408979366
aF0.16313056082932237
aF0.99402687904430065
aa(lp62
F0.3175454217214293
aF0.13491195465090039
aF0.31356800800650297
aF0.040255761390193434
aF0
aa(lp63
F0.29313016926700258
aF0.22090833692272865
aF0.29223734258641476
aF0.37414926976387114
aF0
aa(lp64
F0.17583011123312095
aF0.35519909798752897
aF0.1705085378640909
aF0
aF0.99552015928322546
aa(lp65
F0.2204323347062096
aF0.17897720118606886
aF0.21652720549397914
aF0.2489415039864798
aF0.99701343952215027
aa(lp66
F0.3780291406764732
aF0.057986122565736153
aF0.3765241589671412
aF0.42736825274394041
aF0
aa(lp67
F0.24053871152498829
aF0.39093096395262877
aF0.23681545721550151
aF0.42266187697663793
aF0
aa(lp68
F0.14280234739264458
aF0.11245940854411685
aF0.13705294272484453
aF0.11882409796663193
aF0.99153807864609256
aa(lp69
F0.40534763953133407
aF0.075301011627102898
aF0.40097813293624374
aF0.00041643755352836114
aF0
aa(lp70
F0.33539772602598844
aF0.14586857889088581
aF0.3298102018548047
aF0.33365549118094651
aF0.99054255848680939
aa(lp71
F0.023392907367659248
aF0.19474210999544131
aF0.018747443246036818
aF0.024680458991979282
aF0.9880537580886013
aa(lp72
F0.37613255097337323
aF0.21837103068245989
aF0.37242385712537185
aF0.693532697257629
aF0.99552015928322546
aa(lp73
F0.42409594932499395
aF0.17537670400680819
aF0.42152245882743805
aF0.35564442038293775
aF0
aa(lp74
F0.17142271474068632
aF0.18121685376933444
aF0.16813605547475641
aF0.74484531896521688
aF0.99402687904430065
aa(lp75
F0.26328944074541616
aF0.7416373588179378
aF0.25530481702779023
aF0.24240373176235147
aF0
aa(lp76
F0.2955618281619718
aF0.3472319555964844
aF0.29074934680770748
aF0.33583188911467615
aF0.99751119960179191
aa(lp77
F0.65915088518169573
aF0.19303745859237742
aF0.66153687813293749
aF0.59552175995212087
aF0.99552015928322546
aa(lp78
F0.37313085376837263
aF0.18881580966988781
aF0.36930360166609444
aF0.12998835814220591
aF0
aa(lp79
F0.32701412076478176
aF0.23580690663137543
aF0.32378546112674383
aF0.27724859015450842
aF0
aa(lp80
F0.13027564077017015
aF0.80845014637289936
aF0.12194955061046718
aF0.48104603219488667
aF0.97710303633648576
aa(lp81
F0.30667192644654823
aF0.14637108038205576
aF0.3019290171332169
aF0.28842063009811525
aF0.9960179193628671
aa(lp82
F0.2115945632246308
aF0.78739734418876584
aF0.20330718116152668
aF0.27101190849747497
aF0.99800895968143355
aa(lp83
F0
aF0.1727186411122571
aF0
aF0.016743233450920422
aF0
aa(lp84
F0.38425778991880827
aF0.18936283055415443
aF0.38026978710459725
aF0.06100175632661714
aF0
aa(lp85
F0.12793443308423316
aF0.14240544901377797
aF0.1253162101553609
aF0.37384774593120607
aF0
aa(lp86
F0.22518420969484085
aF0.77750035931536909
aF0.21697995532909403
aF0.27866257939205041
aF0.99651567944250874
aa(lp87
F0.2353128295861813
aF0.31237280707274767
aF0.23283824879801868
aF0.028883209153377838
aF0.99054255848680939
aa(lp88
F0.10161017254330318
aF0.037180525943284796
aF0.08669651374303261
aF0.025736147290588447
aF0.99502239920358382
aa(lp89
F0.41302605173717727
aF0.17975959215294363
aF0.41074178563986979
aF0.58641593593727459
aF0.99800895968143355
aa(lp90
F0.098865409044875591
aF0.77172947643618539
aF0.089917352469487136
aF0.28694119178127331
aF0
aa(lp91
F0.39628103311279511
aF0.15065811126408371
aF0.3935677220598337
aF0.2441756901742767
aF0.99054255848680939
aa(lp92
F0.29972046353241671
aF0.27238779576009831
aF0.29449551616587349
aF0.095316357373126603
aF0
aa(lp93
F0.24579267856238718
aF0.17394487842100215
aF0.2400913283556734
aF0.22765873372780385
aF0
aa(lp94
F0.12409225628445324
aF0.6082474504020331
aF0.11582694419888603
aF0.44488866279153944
aF0
aa(lp95
F0.40048263132926143
aF0.078233684707450457
aF0.3968555453401057
aF0.3755030948134499
aF0
aa(lp96
F0.094367946157465438
aF0
aF0.098678756073793603
aF0.20890136426671826
aF0.9960179193628671
aa(lp97
F0.12294510485104737
aF0.24975963792662026
aF0.11456211641668231
aF0.58597148183922942
aF0
aa(lp98
F0.15713538642742902
aF0.50919605939784518
aF0.1490064038445042
aF0.5817479407343763
aF0
aa(lp99
F0.38404087873714321
aF0.13131894376868777
aF0.38061623755550145
aF0.25211941383468012
aF0
aa(lp100
F0.28516356137934434
aF0.15587073047780436
aF0.28133240941178406
aF0.67578259022548437
aF0.97610751617720259
aa(lp101
F0.66417756897518454
aF0.14313055974139416
aF0.69498572949095361
aF0.0021683582925013534
aF0
aa.