(lp1
(lp2
(lp3
cnumpy.core.multiarray
scalar
p4
(cnumpy
dtype
p5
(S'S18'
I0
I1
tRp6
(I3
S'|'
NNNI18
I1
I0
tbS'SOMZWCG12A8C13C480'
tRp7
aa(lp8
F0.72154022163128406
aF0
aF0.27782738263084777
aF0.0087675706375124236
aF0
aF0.6215558488698234
aF0.30739511645563411
aaa(lp9
(lp10
g4
(g5
(S'S18'
I0
I1
tRp11
(I3
S'|'
NNNI18
I1
I0
tbS'SOCIWDW12A8C13D406'
tRp12
aa(lp13
Fnan
aF0
aF0.14320436236104012
aF0.0052534431350276869
aF0
aF0.67740471869328489
aF0.48542161592907351
aaa(lp14
(lp15
g4
(g5
(S'S18'
I0
I1
tRp16
(I3
S'|'
NNNI18
I1
I0
tbS'SOXVLOJ12AB0189215'
tRp17
aa(lp18
Fnan
aF0
aF0.19910713922894197
aF0.010009938946471673
aF0
aF0.68375680580762244
aF0.35559378903284261
aaa(lp19
(lp20
g4
(g5
(S'S18'
I0
I1
tRp21
(I3
S'|'
NNNI18
I1
I0
tbS'SONHOTT12A8C13493C'
tRp22
aa(lp23
Fnan
aF0
aF0.30530754711413499
aF0
aF0
aF0.71163999340042894
aF0.47329235139967185
aaa(lp24
(lp25
g4
(g5
(S'S18'
I0
I1
tRp26
(I3
S'|'
NNNI18
I1
I0
tbS'SOFSOCN12A8C143F5D'
tRp27
aa(lp28
F0.72439315121546199
aF0
aF0.26011905772375671
aF0.0023427516683231578
aF0
aF0.8977478963867348
aF0.53724498542773869
aaa(lp29
(lp30
g4
(g5
(S'S18'
I0
I1
tRp31
(I3
S'|'
NNNI18
I1
I0
tbS'SOYMRWW12A6D4FAB14'
tRp32
aa(lp33
Fnan
aF0
aF0.37043650384489202
aF0.080363481470964074
aF0
aF0.69885332453390525
aF0.64772476794592349
aaa(lp34
(lp35
g4
(g5
(S'S18'
I0
I1
tRp36
(I3
S'|'
NNNI18
I1
I0
tbS'SOMJBYD12A6D4F8557'
tRp37
aa(lp38
Fnan
aF0
aF0.080059536457364314
aF0.0034076387902882295
aF0
aF0.36974096683715552
aF0.42733462320295856
aaa(lp39
(lp40
g4
(g5
(S'S18'
I0
I1
tRp41
(I3
S'|'
NNNI18
I1
I0
tbS'SOHKNRJ12A6701D1F8'
tRp42
aa(lp43
Fnan
aF0
aF0.22207342032215568
aF0.011323299730228597
aF0
aF0.60320079194852327
aF0.36392079547402711
aaa(lp44
(lp45
g4
(g5
(S'S18'
I0
I1
tRp46
(I3
S'|'
NNNI18
I1
I0
tbS'SOIAZJW12AB01853F1'
tRp47
aa(lp48
F0.31859005445177757
aF0
aF0.37445436402255272
aF0.18813005821382933
aF0
aF0.52672826266292683
aF0.27338296882270818
aaa(lp49
(lp50
g4
(g5
(S'S18'
I0
I1
tRp51
(I3
S'|'
NNNI18
I1
I0
tbS'SOUDSGM12AC9618304'
tRp52
aa(lp53
Fnan
aF0
aF0.36795634980539793
aF0.002981683941502201
aF0
aF0.80716878402903813
aF0.44113541181945087
aaa(lp54
(lp55
g4
(g5
(S'S18'
I0
I1
tRp56
(I3
S'|'
NNNI18
I1
I0
tbS'SOQHXMF12AB0182363'
tRp57
aa(lp58
F0
aF0
aF0.27752977250114302
aF0.075429504472525916
aF0
aF0.67006269592476475
aF0.64149788151159648
aaa(lp59
(lp60
g4
(g5
(S'S18'
I0
I1
tRp61
(I3
S'|'
NNNI18
I1
I0
tbS'SOKEJEJ12A8C13E0D0'
tRp62
aa(lp63
F0.31859005445177757
aF0
aF0.32772818748272264
aF0.012672156751384353
aF0
aF0.77219105758125706
aF0.46522250251034747
aaa(lp64
(lp65
g4
(g5
(S'S18'
I0
I1
tRp66
(I3
S'|'
NNNI18
I1
I0
tbS'SOMUYGI12AB0188633'
tRp67
aa(lp68
F0
aF0
aF0.29191469251440932
aF0
aF0
aF0.80984985975911572
aF0.53909407068158988
aaa(lp69
(lp70
g4
(g5
(S'S18'
I0
I1
tRp71
(I3
S'|'
NNNI18
I1
I0
tbS'SORAMLE12AB017C8B0'
tRp72
aa(lp73
F0
aF0
aF0.22638889062952108
aF0.013488570211557575
aF0
aF0.76373535720178187
aF0.5837537655212951
aaa(lp74
(lp75
g4
(g5
(S'S18'
I0
I1
tRp76
(I3
S'|'
NNNI18
I1
I0
tbS'SOBONFF12A6D4F84D8'
tRp77
aa(lp78
Fnan
aF0
aF0.44578372484075973
aF0.02172369728808746
aF0
aF0.73915195512291698
aF0.50944135583257821
aaa(lp79
(lp80
g4
(g5
(S'S18'
I0
I1
tRp81
(I3
S'|'
NNNI18
I1
I0
tbS'SOHUOAP12A8AE488E9'
tRp82
aa(lp83
F0.48546351643510993
aF0
aF0.794692456683608
aF0
aF0
aF0.72966507177033479
aF0.47655580318875362
aaa(lp84
(lp85
g4
(g5
(S'S18'
I0
I1
tRp86
(I3
S'|'
NNNI18
I1
I0
tbS'SOUQQEA12A8C134B1B'
tRp87
aa(lp88
F0.40108988514838795
aF0
aF0.29618056429827644
aF0.0079156609399403666
aF0
aF0.4189077709948853
aF0.52510959809948321
aaa(lp89
(lp90
g4
(g5
(S'S18'
I0
I1
tRp91
(I3
S'|'
NNNI18
I1
I0
tbS'SOILPQQ12AB017E82A'
tRp92
aa(lp93
Fnan
aF0
aF1
aF0.042347011216811017
aF0
aF0.75210361326513775
aF0.3507139183463544
aaa(lp94
(lp95
g4
(g5
(S'S18'
I0
I1
tRp96
(I3
S'|'
NNNI18
I1
I0
tbS'SOXLBJT12A8C140925'
tRp97
aa(lp98
F0.81982293782170124
aF0
aF0.4133432522784844
aF0.0051469544228311794
aF0
aF0.86598746081504696
aF0.66168474933261501
aaa(lp99
(lp100
g4
(g5
(S'S18'
I0
I1
tRp101
(I3
S'|'
NNNI18
I1
I0
tbS'SOZVMJI12AB01808AF'
tRp102
aa(lp103
F0
aF0
aF0.17673611637256759
aF0.0057503904586113869
aF0
aF0.80345652532585377
aF0.58985819597854561
aaa(lp104
(lp105
g4
(g5
(S'S18'
I0
I1
tRp106
(I3
S'|'
NNNI18
I1
I0
tbS'SOWTBJW12AC468AC6E'
tRp107
aa(lp108
Fnan
aF0
aF0.15044643038552905
aF0.10034786312650859
aF0
aF0.4555766375185612
aF0.27058484974651614
aaa(lp109
(lp110
g4
(g5
(S'S18'
I0
I1
tRp111
(I3
S'|'
NNNI18
I1
I0
tbS'SOBEBDG12A58A76D60'
tRp112
aa(lp113
F0
aF0
aF0.2813492195960956
aF0.0073122249041601582
aF0
aF0.7322224055436396
aF0.41873209081335261
aaa(lp114
(lp115
g4
(g5
(S'S18'
I0
I1
tRp116
(I3
S'|'
NNNI18
I1
I0
tbS'SOZCTXZ12AB0182364'
tRp117
aa(lp118
F0.3757518122675868
aF0
aF0.37400793933363813
aF0
aF0
aF0.75136116152450083
aF0.42786730670324014
aaa(lp119
(lp120
g4
(g5
(S'S18'
I0
I1
tRp121
(I3
S'|'
NNNI18
I1
I0
tbS'SOBBUGU12A8C13E95D'
tRp122
aa(lp123
F0.79872227787567318
aF0
aF0.25664683827072204
aF0.0021652704813289792
aF0
aF0.90752351097178685
aF0.76454777007665742
aaa(lp124
(lp125
g4
(g5
(S'S18'
I0
I1
tRp126
(I3
S'|'
NNNI18
I1
I0
tbS'SOBLGCN12AB0183212'
tRp127
aa(lp128
F0.59352666457004022
aF0
aF0.099206351466910522
aF0
aF0
aF0.57474014189077705
aF0.58490485170581175
aaa(lp129
(lp130
g4
(g5
(S'S18'
I0
I1
tRp131
(I3
S'|'
NNNI18
I1
I0
tbS'SOPSWQW12A6D4F8781'
tRp132
aa(lp133
F0.45055437584288666
aF0
aF0.28953373552191192
aF0
aF0
aF0.83971291866028697
aF0.75113884058680902
aaa(lp134
(lp135
g4
(g5
(S'S18'
I0
I1
tRp136
(I3
S'|'
NNNI18
I1
I0
tbS'SOZQDIU12A58A7BCF6'
tRp137
aa(lp138
Fnan
aF0
aF0.50451388339007353
aF0
aF0
aF0.81587196832205899
aF0.50827190125150012
aaa(lp139
(lp140
g4
(g5
(S'S18'
I0
I1
tRp141
(I3
S'|'
NNNI18
I1
I0
tbS'SONYPOM12A8C13B2D7'
tRp142
aa(lp143
Fnan
aF0
aF0.21622024387662364
aF0.038442425102939083
aF0
aF0.89712918660287078
aF0.29407190614973916
aaa(lp144
(lp145
g4
(g5
(S'S18'
I0
I1
tRp146
(I3
S'|'
NNNI18
I1
I0
tbS'SOBZBAZ12A6D4F8742'
tRp147
aa(lp148
Fnan
aF0
aF0.18159722740455905
aF0.0070992474797671448
aF0
aF0.68676786008909418
aF0.5206338321373466
aaa(lp149
(lp150
g4
(g5
(S'S18'
I0
I1
tRp151
(I3
S'|'
NNNI18
I1
I0
tbS'SOVYKGO12AB0187199'
tRp152
aa(lp153
F0
aF0
aF0.1590773899889748
aF0.019948885418145677
aF0
aF0.33884672496287743
aF0.33041071734711364
aaa(lp154
(lp155
g4
(g5
(S'S18'
I0
I1
tRp156
(I3
S'|'
NNNI18
I1
I0
tbS'SOGNCJP12A58A80271'
tRp157
aa(lp158
F0.49579807657759584
aF0
aF0.51259920226889322
aF0.0022362629561266507
aF0
aF0.59095033822801513
aF0.41755039063456684
aaa(lp159
(lp160
g4
(g5
(S'S18'
I0
I1
tRp161
(I3
S'|'
NNNI18
I1
I0
tbS'SOLLHMX12AB01846DC'
tRp162
aa(lp163
F0.45240860850999237
aF0
aF0.78234126602092124
aF1
aF0
aF0.4508744431611944
aF0.58787440914991063
aaa(lp164
(lp165
g4
(g5
(S'S18'
I0
I1
tRp166
(I3
S'|'
NNNI18
I1
I0
tbS'SOYTPEP12AB0180E7B'
tRp167
aa(lp168
F0.53121058393943577
aF0
aF0.17504961466390603
aF0
aF0
aF0.63289886157399755
aF0.5394614386128187
aaa(lp169
(lp170
g4
(g5
(S'S18'
I0
I1
tRp171
(I3
S'|'
NNNI18
I1
I0
tbS'SOGXHEG12AB018653E'
tRp172
aa(lp173
F0
aF0
aF0.11527779217755331
aF0
aF0
aF0.67163009404388707
aF0.72767015258014744
aaa(lp174
(lp175
g4
(g5
(S'S18'
I0
I1
tRp176
(I3
S'|'
NNNI18
I1
I0
tbS'SOOLYAZ12A6701F4A6'
tRp177
aa(lp178
Fnan
aF0
aF0.19186509019316803
aF0
aF0
aF0.76324038937469052
aF0
aaa(lp179
(lp180
g4
(g5
(S'S18'
I0
I1
tRp181
(I3
S'|'
NNNI18
I1
I0
tbS'SOGOSOV12AF72A285E'
tRp182
aa(lp183
Fnan
aF0
aF0.45669642540099137
aF0
aF0
aF0.69105758125721817
aF0.90404961916191118
aaa(lp184
(lp185
g4
(g5
(S'S18'
I0
I1
tRp186
(I3
S'|'
NNNI18
I1
I0
tbS'SOJXVAH12A8C139700'
tRp187
aa(lp188
F0.71174155618008239
aF0
aF0.71820435571498986
aF0.016576742865256282
aF0
aF0.70957762745421527
aF0.54243711885577139
aaa(lp189
(lp190
g4
(g5
(S'S18'
I0
I1
tRp191
(I3
S'|'
NNNI18
I1
I0
tbS'SOVXMTN12A8C135A18'
tRp192
aa(lp193
Fnan
aF0
aF0.43764880743844176
aF0.0023782479057219935
aF0
aF0.71716713413628119
aF0.52839141828512648
aaa(lp194
(lp195
g4
(g5
(S'S18'
I0
I1
tRp196
(I3
S'|'
NNNI18
I1
I0
tbS'SORSECL12AB0182267'
tRp197
aa(lp198
F0.47261634998299029
aF0
aF0.10674602962110415
aF0
aF0
aF0.3533657812242203
aF0.2996436531067081
aaa(lp199
(lp200
g4
(g5
(S'S18'
I0
I1
tRp201
(I3
S'|'
NNNI18
I1
I0
tbS'SOOGFBZ12AC3DF7FF2'
tRp202
aa(lp203
F0
aF0
aF0.7285714345393105
aF0.0085545932131194085
aF0
aF0.27998680085794408
aF0.29189831255663584
aaa(lp204
(lp205
g4
(g5
(S'S18'
I0
I1
tRp206
(I3
S'|'
NNNI18
I1
I0
tbS'SOMSBGZ12AB018C4CB'
tRp207
aa(lp208
F0.54043894563766659
aF0
aF0.23948413509954208
aF0
aF0
aF0.77532585381950159
aF0.44738066665033926
aaa(lp209
(lp210
g4
(g5
(S'S18'
I0
I1
tRp211
(I3
S'|'
NNNI18
I1
I0
tbS'SONYRZV12AB018AF70'
tRp212
aa(lp213
F0.63365746842879966
aF0
aF0.04379961680013645
aF0
aF0
aF1
aF0.45243809850358796
aaa(lp214
(lp215
g4
(g5
(S'S18'
I0
I1
tRp216
(I3
S'|'
NNNI18
I1
I0
tbS'SONQBUB12A6D4F8ED0'
tRp217
aa(lp218
F1
aF0
aF0.37762897334588263
aF0.0060698565952009087
aF0
aF0.6561623494472858
aF0.59599324043006541
aaa(lp219
(lp220
g4
(g5
(S'S18'
I0
I1
tRp221
(I3
S'|'
NNNI18
I1
I0
tbS'SOHGKJW12AC468A8BD'
tRp222
aa(lp223
F0
aF0
aF0.29250993176253365
aF0.011039329831037909
aF0
aF0.55890117142385742
aF0.46091205211726377
aaa(lp224
(lp225
g4
(g5
(S'S18'
I0
I1
tRp226
(I3
S'|'
NNNI18
I1
I0
tbS'SOINBCU12A6D4F94C0'
tRp227
aa(lp228
F0.61129278063564352
aF0
aF0.22380952055431555
aF0.009158029248899616
aF0
aF0.43734532255403391
aF0.37003134873013144
aaa(lp229
(lp230
g4
(g5
(S'S18'
I0
I1
tRp231
(I3
S'|'
NNNI18
I1
I0
tbS'SOTWVQT12A58A79650'
tRp232
aa(lp233
F0.57776135291411646
aF0
aF0.38958333784315313
aF0.0085190969757205724
aF0
aF0.79698069625474344
aF0.29383923979329424
aaa(lp234
(lp235
g4
(g5
(S'S18'
I0
I1
tRp236
(I3
S'|'
NNNI18
I1
I0
tbS'SOTSEJY12AB0180F56'
tRp237
aa(lp238
Fnan
aF0
aF0.33452381182958213
aF0.0064958114439869373
aF0
aF0.76146675466094693
aF0.45754451274766722
aaa(lp239
(lp240
g4
(g5
(S'S18'
I0
I1
tRp241
(I3
S'|'
NNNI18
I1
I0
tbS'SOTSETT12AB01863B8'
tRp242
aa(lp243
Fnan
aF0
aF0.2329861208823874
aF0
aF0
aF0.64205576637518558
aF0.49685900418799439
aaa(lp244
(lp245
g4
(g5
(S'S18'
I0
I1
tRp246
(I3
S'|'
NNNI18
I1
I0
tbS'SOTUNMH12A6D4FA3E6'
tRp247
aa(lp248
F0.94176062155120654
aF0
aF0.19578373433511717
aF0.026054238250745421
aF0
aF0.6325688830226035
aF0.61182679826602338
aaa(lp249
(lp250
g4
(g5
(S'S18'
I0
I1
tRp251
(I3
S'|'
NNNI18
I1
I0
tbS'SOEPPKB12AB018418B'
tRp252
aa(lp253
Fnan
aF0
aF0.27460317478401952
aF0.036987079369586826
aF0
aF0.69184128031677927
aF0.32820038696088755
aaa(lp254
(lp255
g4
(g5
(S'S18'
I0
I1
tRp256
(I3
S'|'
NNNI18
I1
I0
tbS'SOGKIWV12A6D4F86C4'
tRp257
aa(lp258
F0.67309452209701182
aF0
aF0.51542658395030516
aF0.0024137441431208292
aF0
aF0.70174063685860411
aF0.69163135852660973
aaa(lp259
(lp260
g4
(g5
(S'S18'
I0
I1
tRp261
(I3
S'|'
NNNI18
I1
I0
tbS'SOPHYIS12AAF3B35A3'
tRp262
aa(lp263
F0.5210808099389822
aF0
aF0.33953373742078341
aF0.0025202328553173359
aF0
aF0.58806302590331616
aF0.27000318385540389
aaa(lp264
(lp265
g4
(g5
(S'S18'
I0
I1
tRp266
(I3
S'|'
NNNI18
I1
I0
tbS'SOFHBAR12A6701D0FE'
tRp267
aa(lp268
F0.48546351643510993
aF0
aF0.37440476549905433
aF0.0077381797529461876
aF0
aF0.62790793598416095
aF0.29527197472508632
aaa(lp269
(lp270
g4
(g5
(S'S18'
I0
I1
tRp271
(I3
S'|'
NNNI18
I1
I0
tbS'SOCPRKM12AB018A2FD'
tRp272
aa(lp273
Fnan
aF0
aF0.25337301291168057
aF0
aF0
aF0.60881042732222401
aF0.55809923832382258
aaa(lp274
(lp275
g4
(g5
(S'S18'
I0
I1
tRp276
(I3
S'|'
NNNI18
I1
I0
tbS'SOFGHAM12AB0186412'
tRp277
aa(lp278
Fnan
aF0
aF0.22296626969998476
aF0
aF0
aF0.49855634383765046
aF1
aaa(lp279
(lp280
g4
(g5
(S'S18'
I0
I1
tRp281
(I3
S'|'
NNNI18
I1
I0
tbS'SODHVES12A6701CE6B'
tRp282
aa(lp283
F0.9199934547938402
aF0
aF0.32003969476931926
aF0.019487434331960814
aF0
aF0.73152120112192709
aF0.8459013984472582
aaa(lp284
(lp285
g4
(g5
(S'S18'
I0
I1
tRp286
(I3
S'|'
NNNI18
I1
I0
tbS'SOXIATP12AAF3B2184'
tRp287
aa(lp288
F0.5210808099389822
aF0
aF0.094990078206541706
aF0.035141275024847367
aF0
aF0.73110872793268433
aF0.37070485660405078
aaa(lp289
(lp290
g4
(g5
(S'S18'
I0
I1
tRp291
(I3
S'|'
NNNI18
I1
I0
tbS'SOGNQWU12A8AE4868F'
tRp292
aa(lp293
F0.45888373479573852
aF0
aF0.2553075452152635
aF0.091686781201192682
aF0
aF0.8099736017158885
aF0.25820455046410812
aaa(lp294
(lp295
g4
(g5
(S'S18'
I0
I1
tRp296
(I3
S'|'
NNNI18
I1
I0
tbS'SOYQOFI12A6D4F76E1'
tRp297
aa(lp298
F0.73155141605845819
aF0
aF0.43328373860757807
aF0
aF0
aF0.53357531760435561
aF0.50318385540398214
aaa(lp299
(lp300
g4
(g5
(S'S18'
I0
I1
tRp301
(I3
S'|'
NNNI18
I1
I0
tbS'SOVOLGY12A6D4F822B'
tRp302
aa(lp303
F0.2714886969104045
aF0
aF0.29593255269207003
aF0
aF0
aF0.57144035637683543
aF0.58173324189953701
aaa(lp304
(lp305
g4
(g5
(S'S18'
I0
I1
tRp306
(I3
S'|'
NNNI18
I1
I0
tbS'SOMZCVH12AB0182B8E'
tRp307
aa(lp308
F0.49848627581971988
aF0
aF0.31706349852869742
aF0.011039329831037909
aF0
aF0.19443986140900835
aF0.39392250985770605
aaa(lp309
(lp310
g4
(g5
(S'S18'
I0
I1
tRp311
(I3
S'|'
NNNI18
I1
I0
tbS'SONXJBL12AAF3B2C0C'
tRp312
aa(lp313
Fnan
aF0
aF0.29682540206989905
aF0.011997728240806475
aF0
aF0.72512786668866513
aF0.40390879478827352
aaa(lp314
(lp315
g4
(g5
(S'S18'
I0
I1
tRp316
(I3
S'|'
NNNI18
I1
I0
tbS'SOYWZTU12AB0180E26'
tRp317
aa(lp318
F0
aF0
aF0.17658730181335774
aF0.077062331392872344
aF0
aF0.8267612605180662
aF0.81000955156621191
aaa(lp319
(lp320
g4
(g5
(S'S18'
I0
I1
tRp321
(I3
S'|'
NNNI18
I1
I0
tbS'SOLGHDZ12AB0183B11'
tRp322
aa(lp323
F0.82198477295983674
aF0
aF0.21894840952232408
aF0.011642765866818118
aF0
aF0.83975416597921126
aF0.45816903823075589
aaa(lp324
(lp325
g4
(g5
(S'S18'
I0
I1
tRp326
(I3
S'|'
NNNI18
I1
I0
tbS'SOTNTNJ12AAA15FBD6'
tRp327
aa(lp328
F0
aF0
aF0.38715278232715744
aF0.010613374982251881
aF0
aF0.89209701369410987
aF0.36723935245279316
aaa(lp329
(lp330
g4
(g5
(S'S18'
I0
I1
tRp331
(I3
S'|'
NNNI18
I1
I0
tbS'SOXZXXV12AAF3B3A67'
tRp332
aa(lp333
Fnan
aF0
aF0.24236111530445237
aF0
aF0
aF0.84070285431446945
aF0.52641987705419901
aaa(lp334
(lp335
g4
(g5
(S'S18'
I0
I1
tRp336
(I3
S'|'
NNNI18
I1
I0
tbS'SOPIKEG12A58291636'
tRp337
aa(lp338
F0.80436424599211809
aF0
aF0.13650793506117725
aF0.0084126082635240657
aF0
aF0.76220920640158385
aF0.67735911439837382
aaa(lp339
(lp340
g4
(g5
(S'S18'
I0
I1
tRp341
(I3
S'|'
NNNI18
I1
I0
tbS'SOIRNBO12AC468D207'
tRp342
aa(lp343
Fnan
aF0
aF0.40362103021450146
aF0
aF0
aF0.73329483583567068
aF0.4212118243491465
aaa(lp344
(lp345
g4
(g5
(S'S18'
I0
I1
tRp346
(I3
S'|'
NNNI18
I1
I0
tbS'SOSBDSF12AB0189007'
tRp347
aa(lp348
F0.75035505976156847
aF0
aF0.33055555017541965
aF0.011429788442425103
aF0
aF0.68730407523510961
aF0.43416766672381274
aaa(lp349
(lp350
g4
(g5
(S'S18'
I0
I1
tRp351
(I3
S'|'
NNNI18
I1
I0
tbS'SOIJXXM12A8C1416D6'
tRp352
aa(lp353
F0
aF0
aF0.021676586561253472
aF0.011642765866818118
aF0
aF0
aF0.45093801278440399
aaa(lp354
(lp355
g4
(g5
(S'S18'
I0
I1
tRp356
(I3
S'|'
NNNI18
I1
I0
tbS'SOHMMMC12AB0181C42'
tRp357
aa(lp358
F0.23875377355251512
aF0
aF0.3814980189643335
aF0.077275308817265367
aF0
aF0.82333773304735192
aF0.50831476084347682
aaa(lp359
(lp360
g4
(g5
(S'S18'
I0
I1
tRp361
(I3
S'|'
NNNI18
I1
I0
tbS'SOVJXVJ12A8C13517D'
tRp362
aa(lp363
F0.31859005445177757
aF0
aF0.42956348855962201
aF0.6777296606559704
aF0
aF0.67101138426002316
aF0.43645759349513841
aaa(lp364
(lp365
g4
(g5
(S'S18'
I0
I1
tRp366
(I3
S'|'
NNNI18
I1
I0
tbS'SOFZCTA12AB0188D8F'
tRp367
aa(lp368
F0.28488441474000575
aF0
aF0.1685516004467513
aF0.0058568791708078945
aF0
aF0.70553539019963685
aF0.3366682177757096
aaa(lp369
(lp370
g4
(g5
(S'S18'
I0
I1
tRp371
(I3
S'|'
NNNI18
I1
I0
tbS'SOLRYQR12A670215BF'
tRp372
aa(lp373
F0.98800409977288717
aF0
aF0.25952381847563233
aF0
aF0
aF0.88273387229830047
aF0.60616933212510105
aaa(lp374
(lp375
g4
(g5
(S'S18'
I0
I1
tRp376
(I3
S'|'
NNNI18
I1
I0
tbS'SOCHRXB12A8AE48069'
tRp377
aa(lp378
F0.74826964120113937
aF0
aF0.29811507761314443
aF0
aF0
aF0.88203266787658807
aF0.38704048394602136
aaa(lp379
(lp380
g4
(g5
(S'S18'
I0
I1
tRp381
(I3
S'|'
NNNI18
I1
I0
tbS'SOKBBXO12A6701DEA0'
tRp382
aa(lp383
F0.76158450473265216
aF0
aF0.67271825619490688
aF0.010151923896067016
aF0
aF0.54920805147665397
aF0.12872572310254463
aaa(lp384
(lp385
g4
(g5
(S'S18'
I0
I1
tRp386
(I3
S'|'
NNNI18
I1
I0
tbS'SOWHYUG12A58A77FAB'
tRp387
aa(lp388
Fnan
aF0
aF0.37341270008551375
aF0.13804486724407211
aF0
aF0.59870483418577791
aF0.62826039038965498
aaa(lp389
(lp390
g4
(g5
(S'S18'
I0
I1
tRp391
(I3
S'|'
NNNI18
I1
I0
tbS'SOYSTDI12A6D4F6500'
tRp392
aa(lp393
F0.23821103270060287
aF0
aF0.33571429032583083
aF0.022966065597046715
aF0
aF0.80733377330473521
aF0.77102569126399045
aaa(lp394
(lp395
g4
(g5
(S'S18'
I0
I1
tRp396
(I3
S'|'
NNNI18
I1
I0
tbS'SOOOROX12A6D4F8400'
tRp397
aa(lp398
Fnan
aF0
aF0.12127976419358023
aF0.00812863836433338
aF0
aF0.70842270252433581
aF0.53347334133379054
aaa(lp399
(lp400
g4
(g5
(S'S18'
I0
I1
tRp401
(I3
S'|'
NNNI18
I1
I0
tbS'SONSPZE12AB01819CE'
tRp402
aa(lp403
F0
aF0
aF0.30505953550792864
aF0.013701547635950589
aF0
aF0.97376670516416419
aF0.55122945800984535
aaa(lp404
(lp405
g4
(g5
(S'S18'
I0
I1
tRp406
(I3
S'|'
NNNI18
I1
I0
tbS'SOHWGFU12AB017B036'
tRp407
aa(lp408
F0.29846374781153151
aF0
aF0.21765873397907878
aF0.0037980974016754224
aF0
aF0.9010889292196006
aF0.86899047292498333
aaa(lp409
(lp410
g4
(g5
(S'S18'
I0
I1
tRp411
(I3
S'|'
NNNI18
I1
I0
tbS'SOQQVQJ12AB0185192'
tRp412
aa(lp413
Fnan
aF0
aF0
aF0
aF0
aF0.62757795743276679
aF0.29312287232739831
aaa(lp414
(lp415
g4
(g5
(S'S18'
I0
I1
tRp416
(I3
S'|'
NNNI18
I1
I0
tbS'SODRHHD12AB0189F2A'
tRp417
aa(lp418
Fnan
aF0
aF0.37981151725567192
aF0.098502058781769125
aF0
aF0.67216630918990261
aF0.47698439910852042
aaa(lp419
(lp420
g4
(g5
(S'S18'
I0
I1
tRp421
(I3
S'|'
NNNI18
I1
I0
tbS'SOQGFVO12A8C13C8C3'
tRp422
aa(lp423
Fnan
aF0
aF0.13318453016735252
aF0.0077381797529461876
aF0
aF0.61586371885827407
aF0.58348436237172729
aaa(lp424
(lp425
g4
(g5
(S'S18'
I0
I1
tRp426
(I3
S'|'
NNNI18
I1
I0
tbS'SORABMD12A8C136672'
tRp427
aa(lp428
F0.45862991675017062
aF0
aF0.23070436093688654
aF0.0031591651284963791
aF0
aF0.44072760270582406
aF0.2470549337513164
aaa(lp429
(lp430
g4
(g5
(S'S18'
I0
I1
tRp431
(I3
S'|'
NNNI18
I1
I0
tbS'SOTUBVH12AB018D2EC'
tRp432
aa(lp433
Fnan
aF0
aF0.23412698186642286
aF0.0058568791708078945
aF0
aF0.58925919815212002
aF0.30304180647057377
aaa(lp434
(lp435
g4
(g5
(S'S18'
I0
I1
tRp436
(I3
S'|'
NNNI18
I1
I0
tbS'SOMQAGT12A8C132DB4'
tRp437
aa(lp438
Fnan
aF0
aF0.086805562280725432
aF0
aF0
aF0.62081339712918659
aF0.26142514266121325
aaa(lp439
(lp440
g4
(g5
(S'S18'
I0
I1
tRp441
(I3
S'|'
NNNI18
I1
I0
tbS'SOKLLOH12A67020F2C'
tRp442
aa(lp443
F0.86893672428416013
aF0
aF0.40977183577845322
aF0.0040110748260684366
aF0
aF0.74661771984820979
aF0.45071759202566675
aaa(lp444
(lp445
g4
(g5
(S'S18'
I0
I1
tRp446
(I3
S'|'
NNNI18
I1
I0
tbS'SONRLQH12AB017C232'
tRp447
aa(lp448
Fnan
aF0
aF0.096081359655793841
aF0.035531733636234554
aF0
aF0.55997360171588839
aF0.51756018711273299
aaa(lp449
(lp450
g4
(g5
(S'S18'
I0
I1
tRp451
(I3
S'|'
NNNI18
I1
I0
tbS'SODDZAD12A6701DC4C'
tRp452
aa(lp453
F0.79709781118154932
aF0
aF0.40094246309229936
aF0
aF0
aF0.72455040422372541
aF0.43890671303666329
aaa(lp454
(lp455
g4
(g5
(S'S18'
I0
I1
tRp456
(I3
S'|'
NNNI18
I1
I0
tbS'SORENXV12A6701F61F'
tRp457
aa(lp458
F0.66466108176980976
aF0
aF0.31651785780407132
aF0.0064603152065881011
aF0
aF0.84590001649892754
aF0.27518919448458279
aaa(lp459
(lp460
g4
(g5
(S'S18'
I0
I1
tRp461
(I3
S'|'
NNNI18
I1
I0
tbS'SOYMMDY12AB01825B2'
tRp462
aa(lp463
F0.3644963372774222
aF0
aF0.25471230596713912
aF0.0034076387902882295
aF0
aF0.88100148490348118
aF0.61193088584653821
aaa(lp464
(lp465
g4
(g5
(S'S18'
I0
I1
tRp466
(I3
S'|'
NNNI18
I1
I0
tbS'SOJWQIP12A6D4F710A'
tRp467
aa(lp468
Fnan
aF0
aF0.11810517385896527
aF0
aF0
aF0.74793763405378644
aF0.392202003379785
aaa(lp469
(lp470
g4
(g5
(S'S18'
I0
I1
tRp471
(I3
S'|'
NNNI18
I1
I0
tbS'SOOVOKS12AB017EE57'
tRp472
aa(lp473
Fnan
aF0
aF0.40451389858104547
aF0.014092006247337783
aF0
aF0.70834020788648733
aF0.51974602630354383
aaa(lp474
(lp475
g4
(g5
(S'S18'
I0
I1
tRp476
(I3
S'|'
NNNI18
I1
I0
tbS'SORWHWY12A6702038E'
tRp477
aa(lp478
F0.68317671896597332
aF0
aF0.097916675923665222
aF0
aF0
aF0.6587196832205906
aF0.26337219269672546
aaa(lp479
(lp480
g4
(g5
(S'S18'
I0
I1
tRp481
(I3
S'|'
NNNI18
I1
I0
tbS'SOGYYLE12A8C13E5EA'
tRp482
aa(lp483
Fnan
aF0
aF0.11671628228000845
aF0.15763879028822944
aF0
aF0.55382775119617211
aF0.56149739168768831
aaa(lp484
(lp485
g4
(g5
(S'S18'
I0
I1
tRp486
(I3
S'|'
NNNI18
I1
I0
tbS'SOITUXQ12AB0183AE9'
tRp487
aa(lp488
Fnan
aF0
aF0.15758930136302138
aF0.0054664205594207012
aF0
aF0.51790133641313307
aF0.47134530136415953
aaa(lp489
(lp490
g4
(g5
(S'S18'
I0
I1
tRp491
(I3
S'|'
NNNI18
I1
I0
tbS'SOTWEZZ12A8C142B60'
tRp492
aa(lp493
Fnan
aF0
aF0.38506945445307961
aF0
aF0
aF0.99599901006434577
aF0.36990889275305522
aaa(lp494
(lp495
g4
(g5
(S'S18'
I0
I1
tRp496
(I3
S'|'
NNNI18
I1
I0
tbS'SOUVRGZ12A58A77F90'
tRp497
aa(lp498
F0
aF0
aF0.28645834223429351
aF0.010329405083061195
aF0
aF0.48787328823626452
aF0.42867551615194338
aaa(lp499
(lp500
g4
(g5
(S'S18'
I0
I1
tRp501
(I3
S'|'
NNNI18
I1
I0
tbS'SOBLTSM12A6D4F9EEA'
tRp502
aa(lp503
F0.32447980065027593
aF0
aF0.70376983717822528
aF0.0081641346017322161
aF0
aF0.54710443821151611
aF0.021637971149371792
aaa.