(lp1
(lp2
(lp3
cnumpy.core.multiarray
scalar
p4
(cnumpy
dtype
p5
(S'S18'
I0
I1
tRp6
(I3
S'|'
NNNI18
I1
I0
tbS'SOMZWCG12A8C13C480'
tRp7
aa(lp8
F0.60211998990575477
aF0
aF218.93179000000001
aF0.247
aF0
aF-11.196999999999999
aF92.197999999999993
aaa(lp9
(lp10
g4
(g5
(S'S18'
I0
I1
tRp11
(I3
S'|'
NNNI18
I1
I0
tbS'SOCIWDW12A8C13D406'
tRp12
aa(lp13
Fnan
aF0
aF148.03546
aF0.14799999999999999
aF0
aF-9.843
aF121.274
aaa(lp14
(lp15
g4
(g5
(S'S18'
I0
I1
tRp16
(I3
S'|'
NNNI18
I1
I0
tbS'SOXVLOJ12AB0189215'
tRp17
aa(lp18
Fnan
aF0
aF177.47546
aF0.28199999999999997
aF0
aF-9.6890000000000001
aF100.06999999999999
aaa(lp19
(lp20
g4
(g5
(S'S18'
I0
I1
tRp21
(I3
S'|'
NNNI18
I1
I0
tbS'SONHOTT12A8C13493C'
tRp22
aa(lp23
Fnan
aF0
aF233.40362999999999
aF0
aF0
aF-9.0129999999999999
aF119.29300000000001
aaa(lp24
(lp25
g4
(g5
(S'S18'
I0
I1
tRp26
(I3
S'|'
NNNI18
I1
I0
tbS'SOFSOCN12A8C143F5D'
tRp27
aa(lp28
F0.6045007385888197
aF0
aF209.60607999999999
aF0.066000000000000003
aF0
aF-4.5010000000000003
aF129.738
aaa(lp29
(lp30
g4
(g5
(S'S18'
I0
I1
tRp31
(I3
S'|'
NNNI18
I1
I0
tbS'SOYMRWW12A6D4FAB14'
tRp32
aa(lp33
Fnan
aF0
aF267.70240000000001
aF2.2639999999999998
aF0
aF-9.3230000000000004
aF147.78200000000001
aaa(lp34
(lp35
g4
(g5
(S'S18'
I0
I1
tRp36
(I3
S'|'
NNNI18
I1
I0
tbS'SOMJBYD12A6D4F8557'
tRp37
aa(lp38
Fnan
aF0
aF114.78158999999999
aF0.096000000000000002
aF0
aF-17.302
aF111.78700000000001
aaa(lp39
(lp40
g4
(g5
(S'S18'
I0
I1
tRp41
(I3
S'|'
NNNI18
I1
I0
tbS'SOHKNRJ12A6701D1F8'
tRp42
aa(lp43
Fnan
aF0
aF189.57015999999999
aF0.31900000000000001
aF0
aF-11.641999999999999
aF101.43000000000001
aaa(lp44
(lp45
g4
(g5
(S'S18'
I0
I1
tRp46
(I3
S'|'
NNNI18
I1
I0
tbS'SOIAZJW12AB01853F1'
tRp47
aa(lp48
F0.26586104921065007
aF0
aF269.81832000000003
aF5.2999999999999998
aF0
aF-13.496
aF86.643000000000001
aaa(lp49
(lp50
g4
(g5
(S'S18'
I0
I1
tRp51
(I3
S'|'
NNNI18
I1
I0
tbS'SOUDSGM12AC9618304'
tRp52
aa(lp53
Fnan
aF0
aF266.39627999999999
aF0.084000000000000005
aF0
aF-6.6970000000000001
aF114.041
aaa(lp54
(lp55
g4
(g5
(S'S18'
I0
I1
tRp56
(I3
S'|'
NNNI18
I1
I0
tbS'SOQHXMF12AB0182363'
tRp57
aa(lp58
F0
aF0
aF218.77506
aF2.125
aF0
aF-10.021000000000001
aF146.76499999999999
aaa(lp59
(lp60
g4
(g5
(S'S18'
I0
I1
tRp61
(I3
S'|'
NNNI18
I1
I0
tbS'SOKEJEJ12A8C13E0D0'
tRp62
aa(lp63
F0.26586104921065007
aF0
aF245.21098000000001
aF0.35699999999999998
aF0
aF-7.5449999999999999
aF117.97499999999999
aaa(lp64
(lp65
g4
(g5
(S'S18'
I0
I1
tRp66
(I3
S'|'
NNNI18
I1
I0
tbS'SOMUYGI12AB0188633'
tRp67
aa(lp68
F0
aF0
aF226.35057
aF0
aF0
aF-6.6319999999999997
aF130.03999999999999
aaa(lp69
(lp70
g4
(g5
(S'S18'
I0
I1
tRp71
(I3
S'|'
NNNI18
I1
I0
tbS'SORAMLE12AB017C8B0'
tRp72
aa(lp73
F0
aF0
aF191.84280999999999
aF0.38
aF0
aF-7.75
aF137.334
aaa(lp74
(lp75
g4
(g5
(S'S18'
I0
I1
tRp76
(I3
S'|'
NNNI18
I1
I0
tbS'SOBONFF12A6D4F84D8'
tRp77
aa(lp78
Fnan
aF0
aF307.38240000000002
aF0.61199999999999999
aF0
aF-8.3460000000000001
aF125.197
aaa(lp79
(lp80
g4
(g5
(S'S18'
I0
I1
tRp81
(I3
S'|'
NNNI18
I1
I0
tbS'SOHUOAP12A8AE488E9'
tRp82
aa(lp83
F0.40511572169138649
aF0
aF491.12770999999998
aF0
aF0
aF-8.5760000000000005
aF119.82599999999999
aaa(lp84
(lp85
g4
(g5
(S'S18'
I0
I1
tRp86
(I3
S'|'
NNNI18
I1
I0
tbS'SOUQQEA12A8C134B1B'
tRp87
aa(lp88
F0.33470654906922059
aF0
aF228.59710000000001
aF0.223
aF0
aF-16.109999999999999
aF127.756
aaa(lp89
(lp90
g4
(g5
(S'S18'
I0
I1
tRp91
(I3
S'|'
NNNI18
I1
I0
tbS'SOILPQQ12AB017E82A'
tRp92
aa(lp93
Fnan
aF0
aF599.24852999999996
aF1.1930000000000001
aF0
aF-8.032
aF99.272999999999996
aaa(lp94
(lp95
g4
(g5
(S'S18'
I0
I1
tRp96
(I3
S'|'
NNNI18
I1
I0
tbS'SOXLBJT12A8C140925'
tRp97
aa(lp98
F0.68413619122949032
aF0
aF290.29831999999999
aF0.14499999999999999
aF0
aF-5.2709999999999999
aF150.06200000000001
aaa(lp99
(lp100
g4
(g5
(S'S18'
I0
I1
tRp101
(I3
S'|'
NNNI18
I1
I0
tbS'SOZVMJI12AB01808AF'
tRp102
aa(lp103
F0
aF0
aF165.69424000000001
aF0.16200000000000001
aF0
aF-6.7869999999999999
aF138.33099999999999
aaa(lp104
(lp105
g4
(g5
(S'S18'
I0
I1
tRp106
(I3
S'|'
NNNI18
I1
I0
tbS'SOWTBJW12AC468AC6E'
tRp107
aa(lp108
Fnan
aF0
aF151.84934000000001
aF2.827
aF0
aF-15.221
aF86.186000000000007
aaa(lp109
(lp110
g4
(g5
(S'S18'
I0
I1
tRp111
(I3
S'|'
NNNI18
I1
I0
tbS'SOBEBDG12A58A76D60'
tRp112
aa(lp113
F0
aF0
aF220.78648999999999
aF0.20599999999999999
aF0
aF-8.5139999999999993
aF110.38200000000001
aaa(lp114
(lp115
g4
(g5
(S'S18'
I0
I1
tRp116
(I3
S'|'
NNNI18
I1
I0
tbS'SOZCTXZ12AB0182364'
tRp117
aa(lp118
F0.31356211424793418
aF0
aF269.58321999999998
aF0
aF0
aF-8.0500000000000007
aF111.874
aaa(lp119
(lp120
g4
(g5
(S'S18'
I0
I1
tRp121
(I3
S'|'
NNNI18
I1
I0
tbS'SOBBUGU12A8C13E95D'
tRp122
aa(lp123
F0.66652784622970229
aF0
aF207.77751000000001
aF0.060999999999999999
aF0
aF-4.2640000000000002
aF166.86199999999999
aaa(lp124
(lp125
g4
(g5
(S'S18'
I0
I1
tRp126
(I3
S'|'
NNNI18
I1
I0
tbS'SOBLGCN12AB0183212'
tRp127
aa(lp128
F0.49529362129216348
aF0
aF124.86485
aF0
aF0
aF-12.332000000000001
aF137.52199999999999
aaa(lp129
(lp130
g4
(g5
(S'S18'
I0
I1
tRp131
(I3
S'|'
NNNI18
I1
I0
tbS'SOPSWQW12A6D4F8781'
tRp132
aa(lp133
F0.37598430150044215
aF0
aF225.09669
aF0
aF0
aF-5.9080000000000004
aF164.672
aaa(lp134
(lp135
g4
(g5
(S'S18'
I0
I1
tRp136
(I3
S'|'
NNNI18
I1
I0
tbS'SOZQDIU12A58A7BCF6'
tRp137
aa(lp138
Fnan
aF0
aF338.31137999999999
aF0
aF0
aF-6.4859999999999998
aF125.006
aaa(lp139
(lp140
g4
(g5
(S'S18'
I0
I1
tRp141
(I3
S'|'
NNNI18
I1
I0
tbS'SONYPOM12A8C13B2D7'
tRp142
aa(lp143
Fnan
aF0
aF186.48770999999999
aF1.083
aF0
aF-4.516
aF90.022000000000006
aaa(lp144
(lp145
g4
(g5
(S'S18'
I0
I1
tRp146
(I3
S'|'
NNNI18
I1
I0
tbS'SOBZBAZ12A6D4F8742'
tRp147
aa(lp148
Fnan
aF0
aF168.25424000000001
aF0.20000000000000001
aF0
aF-9.6159999999999997
aF127.02500000000001
aaa(lp149
(lp150
g4
(g5
(S'S18'
I0
I1
tRp151
(I3
S'|'
NNNI18
I1
I0
tbS'SOVYKGO12AB0187199'
tRp152
aa(lp153
F0
aF0
aF156.39465000000001
aF0.56200000000000006
aF0
aF-18.050999999999998
aF95.956999999999994
aaa(lp154
(lp155
g4
(g5
(S'S18'
I0
I1
tRp156
(I3
S'|'
NNNI18
I1
I0
tbS'SOGNCJP12A58A80271'
tRp157
aa(lp158
F0.41373983586010971
aF0
aF342.56934000000001
aF0.063
aF0
aF-11.939
aF110.18899999999999
aaa(lp159
(lp160
g4
(g5
(S'S18'
I0
I1
tRp161
(I3
S'|'
NNNI18
I1
I0
tbS'SOLLHMX12AB01846DC'
tRp162
aa(lp163
F0.3775316449767025
aF0
aF484.62322
aF28.172000000000001
aF0
aF-15.335000000000001
aF138.00700000000001
aaa(lp164
(lp165
g4
(g5
(S'S18'
I0
I1
tRp166
(I3
S'|'
NNNI18
I1
I0
tbS'SOYTPEP12AB0180E7B'
tRp167
aa(lp168
F0.4432913119053975
aF0
aF164.80608000000001
aF0
aF0
aF-10.922000000000001
aF130.09999999999999
aaa(lp169
(lp170
g4
(g5
(S'S18'
I0
I1
tRp171
(I3
S'|'
NNNI18
I1
I0
tbS'SOGXHEG12AB018653E'
tRp172
aa(lp173
F0
aF0
aF133.32853
aF0
aF0
aF-9.9830000000000005
aF160.839
aaa(lp174
(lp175
g4
(g5
(S'S18'
I0
I1
tRp176
(I3
S'|'
NNNI18
I1
I0
tbS'SOOLYAZ12A6701F4A6'
tRp177
aa(lp178
Fnan
aF0
aF173.66158999999999
aF0
aF0
aF-7.7619999999999996
aF41.993000000000002
aaa(lp179
(lp180
g4
(g5
(S'S18'
I0
I1
tRp181
(I3
S'|'
NNNI18
I1
I0
tbS'SOGOSOV12AF72A285E'
tRp182
aa(lp183
Fnan
aF0
aF313.12934000000001
aF0
aF0
aF-9.5120000000000005
aF189.64599999999999
aaa(lp184
(lp185
g4
(g5
(S'S18'
I0
I1
tRp186
(I3
S'|'
NNNI18
I1
I0
tbS'SOJXVAH12A8C139700'
tRp187
aa(lp188
F0.59394307590194695
aF0
aF450.84688999999997
aF0.46700000000000003
aF0
aF-9.0630000000000006
aF130.58600000000001
aaa(lp189
(lp190
g4
(g5
(S'S18'
I0
I1
tRp191
(I3
S'|'
NNNI18
I1
I0
tbS'SOVXMTN12A8C135A18'
tRp192
aa(lp193
Fnan
aF0
aF303.09832
aF0.067000000000000004
aF0
aF-8.8789999999999996
aF128.292
aaa(lp194
(lp195
g4
(g5
(S'S18'
I0
I1
tRp196
(I3
S'|'
NNNI18
I1
I0
tbS'SORSECL12AB0182267'
tRp197
aa(lp198
F0.39439485610058261
aF0
aF128.83546000000001
aF0
aF0
aF-17.699000000000002
aF90.932000000000002
aaa(lp199
(lp200
g4
(g5
(S'S18'
I0
I1
tRp201
(I3
S'|'
NNNI18
I1
I0
tbS'SOOGFBZ12AC3DF7FF2'
tRp202
aa(lp203
F0
aF0
aF456.30649
aF0.24099999999999999
aF0
aF-19.478000000000002
aF89.667000000000002
aaa(lp204
(lp205
g4
(g5
(S'S18'
I0
I1
tRp206
(I3
S'|'
NNNI18
I1
I0
tbS'SOMSBGZ12AB018C4CB'
tRp207
aa(lp208
F0.45099231163625503
aF0
aF198.73913999999999
aF0
aF0
aF-7.4690000000000003
aF115.06100000000001
aaa(lp209
(lp210
g4
(g5
(S'S18'
I0
I1
tRp211
(I3
S'|'
NNNI18
I1
I0
tbS'SONYRZV12AB018AF70'
tRp212
aa(lp213
F0.52878248094258773
aF0
aF95.686080000000004
aF0
aF0
aF-2.0219999999999998
aF115.887
aaa(lp214
(lp215
g4
(g5
(S'S18'
I0
I1
tRp216
(I3
S'|'
NNNI18
I1
I0
tbS'SONQBUB12A6D4F8ED0'
tRp217
aa(lp218
F0.8344926198909054
aF0
aF271.49016
aF0.17100000000000001
aF0
aF-10.358000000000001
aF139.333
aaa(lp219
(lp220
g4
(g5
(S'S18'
I0
I1
tRp221
(I3
S'|'
NNNI18
I1
I0
tbS'SOHGKJW12AC468A8BD'
tRp222
aa(lp223
F0
aF0
aF226.66404
aF0.311
aF0
aF-12.715999999999999
aF117.271
aaa(lp224
(lp225
g4
(g5
(S'S18'
I0
I1
tRp226
(I3
S'|'
NNNI18
I1
I0
tbS'SOINBCU12A6D4F94C0'
tRp227
aa(lp228
F0.51011931403303468
aF0
aF190.48444000000001
aF0.25800000000000001
aF0
aF-15.663
aF102.428
aaa(lp229
(lp230
g4
(g5
(S'S18'
I0
I1
tRp231
(I3
S'|'
NNNI18
I1
I0
tbS'SOTWVQT12A58A79650'
tRp232
aa(lp233
F0.48213758506501503
aF0
aF277.78566999999998
aF0.23999999999999999
aF0
aF-6.944
aF89.983999999999995
aaa(lp234
(lp235
g4
(g5
(S'S18'
I0
I1
tRp236
(I3
S'|'
NNNI18
I1
I0
tbS'SOTSEJY12AB0180F56'
tRp237
aa(lp238
Fnan
aF0
aF248.78975
aF0.183
aF0
aF-7.8049999999999997
aF116.721
aaa(lp239
(lp240
g4
(g5
(S'S18'
I0
I1
tRp241
(I3
S'|'
NNNI18
I1
I0
tbS'SOTSETT12AB01863B8'
tRp242
aa(lp243
Fnan
aF0
aF195.31710000000001
aF0
aF0
aF-10.699999999999999
aF123.142
aaa(lp244
(lp245
g4
(g5
(S'S18'
I0
I1
tRp246
(I3
S'|'
NNNI18
I1
I0
tbS'SOTUNMH12A6D4FA3E6'
tRp247
aa(lp248
F0.78589228838835379
aF0
aF175.72525999999999
aF0.73399999999999999
aF0
aF-10.93
aF141.91900000000001
aaa(lp249
(lp250
g4
(g5
(S'S18'
I0
I1
tRp251
(I3
S'|'
NNNI18
I1
I0
tbS'SOEPPKB12AB018418B'
tRp252
aa(lp253
Fnan
aF0
aF217.23383000000001
aF1.042
aF0
aF-9.4930000000000003
aF95.596000000000004
aaa(lp254
(lp255
g4
(g5
(S'S18'
I0
I1
tRp256
(I3
S'|'
NNNI18
I1
I0
tbS'SOGKIWV12A6D4F86C4'
tRp257
aa(lp258
F0.5616924111789523
aF0
aF344.05831999999998
aF0.068000000000000005
aF0
aF-9.2530000000000001
aF154.953
aaa(lp259
(lp260
g4
(g5
(S'S18'
I0
I1
tRp261
(I3
S'|'
NNNI18
I1
I0
tbS'SOPHYIS12AAF3B35A3'
tRp262
aa(lp263
F0.43483809026085618
aF0
aF251.42812000000001
aF0.070999999999999994
aF0
aF-12.009
aF86.090999999999994
aaa(lp264
(lp265
g4
(g5
(S'S18'
I0
I1
tRp266
(I3
S'|'
NNNI18
I1
I0
tbS'SOFHBAR12A6701D0FE'
tRp267
aa(lp268
F0.40511572169138649
aF0
aF269.79219999999998
aF0.218
aF0
aF-11.042999999999999
aF90.218000000000004
aaa(lp269
(lp270
g4
(g5
(S'S18'
I0
I1
tRp271
(I3
S'|'
NNNI18
I1
I0
tbS'SOCPRKM12AB018A2FD'
tRp272
aa(lp273
Fnan
aF0
aF206.05341999999999
aF0
aF0
aF-11.506
aF133.14400000000001
aaa(lp274
(lp275
g4
(g5
(S'S18'
I0
I1
tRp276
(I3
S'|'
NNNI18
I1
I0
tbS'SOFGHAM12AB0186412'
tRp277
aa(lp278
Fnan
aF0
aF190.04035999999999
aF0
aF0
aF-14.179
aF205.31700000000001
aaa(lp279
(lp280
g4
(g5
(S'S18'
I0
I1
tRp281
(I3
S'|'
NNNI18
I1
I0
tbS'SODHVES12A6701CE6B'
tRp282
aa(lp283
F0.76772774837339697
aF0
aF241.16200000000001
aF0.54900000000000004
aF0
aF-8.5310000000000006
aF180.149
aaa(lp284
(lp285
g4
(g5
(S'S18'
I0
I1
tRp286
(I3
S'|'
NNNI18
I1
I0
tbS'SOXIATP12AAF3B2184'
tRp287
aa(lp288
F0.43483809026085618
aF0
aF122.64444
aF0.98999999999999999
aF0
aF-8.5410000000000004
aF102.538
aaa(lp289
(lp290
g4
(g5
(S'S18'
I0
I1
tRp291
(I3
S'|'
NNNI18
I1
I0
tbS'SOGNQWU12A8AE4868F'
tRp292
aa(lp293
F0.38293509007501925
aF0
aF207.07220000000001
aF2.5830000000000002
aF0
aF-6.6289999999999996
aF84.164000000000001
aaa(lp294
(lp295
g4
(g5
(S'S18'
I0
I1
tRp296
(I3
S'|'
NNNI18
I1
I0
tbS'SOYQOFI12A6D4F76E1'
tRp297
aa(lp298
F0.61047425777152453
aF0
aF300.79955000000001
aF0
aF0
aF-13.33
aF124.175
aaa(lp299
(lp300
g4
(g5
(S'S18'
I0
I1
tRp301
(I3
S'|'
NNNI18
I1
I0
tbS'SOVOLGY12A6D4F822B'
tRp302
aa(lp303
F0.22655531395553141
aF0
aF228.46648999999999
aF0
aF0
aF-12.412000000000001
aF137.00399999999999
aaa(lp304
(lp305
g4
(g5
(S'S18'
I0
I1
tRp306
(I3
S'|'
NNNI18
I1
I0
tbS'SOMZCVH12AB0182B8E'
tRp307
aa(lp308
F0.41598311828845852
aF0
aF239.59465
aF0.311
aF0
aF-21.552
aF106.33
aaa(lp309
(lp310
g4
(g5
(S'S18'
I0
I1
tRp311
(I3
S'|'
NNNI18
I1
I0
tbS'SONXJBL12AAF3B2C0C'
tRp312
aa(lp313
Fnan
aF0
aF228.93669
aF0.33800000000000002
aF0
aF-8.6859999999999999
aF107.961
aaa(lp314
(lp315
g4
(g5
(S'S18'
I0
I1
tRp316
(I3
S'|'
NNNI18
I1
I0
tbS'SOYWZTU12AB0180E26'
tRp317
aa(lp318
F0
aF0
aF165.61587
aF2.1709999999999998
aF0
aF-6.2220000000000004
aF174.28700000000001
aaa(lp319
(lp320
g4
(g5
(S'S18'
I0
I1
tRp321
(I3
S'|'
NNNI18
I1
I0
tbS'SOLGHDZ12AB0183B11'
tRp322
aa(lp323
F0.68594022669768517
aF0
aF187.92444
aF0.32800000000000001
aF0
aF-5.907
aF116.82299999999999
aaa(lp324
(lp325
g4
(g5
(S'S18'
I0
I1
tRp326
(I3
S'|'
NNNI18
I1
I0
tbS'SOTNTNJ12AAA15FBD6'
tRp327
aa(lp328
F0
aF0
aF276.50567000000001
aF0.29899999999999999
aF0
aF-4.6379999999999999
aF101.97199999999999
aaa(lp329
(lp330
g4
(g5
(S'S18'
I0
I1
tRp331
(I3
S'|'
NNNI18
I1
I0
tbS'SOXZXXV12AAF3B3A67'
tRp332
aa(lp333
Fnan
aF0
aF200.25424000000001
aF0
aF0
aF-5.8840000000000003
aF127.97
aaa(lp334
(lp335
g4
(g5
(S'S18'
I0
I1
tRp336
(I3
S'|'
NNNI18
I1
I0
tbS'SOPIKEG12A58291636'
tRp337
aa(lp338
F0.67123602698453533
aF0
aF144.50892999999999
aF0.23699999999999999
aF0
aF-7.7869999999999999
aF152.62200000000001
aaa(lp339
(lp340
g4
(g5
(S'S18'
I0
I1
tRp341
(I3
S'|'
NNNI18
I1
I0
tbS'SOIRNBO12AC468D207'
tRp342
aa(lp343
Fnan
aF0
aF285.17831999999999
aF0
aF0
aF-8.4879999999999995
aF110.78700000000001
aaa(lp344
(lp345
g4
(g5
(S'S18'
I0
I1
tRp346
(I3
S'|'
NNNI18
I1
I0
tbS'SOSBDSF12AB0189007'
tRp347
aa(lp348
F0.62616575966882815
aF0
aF246.69995
aF0.32200000000000001
aF0
aF-9.6029999999999998
aF112.90300000000001
aaa(lp349
(lp350
g4
(g5
(S'S18'
I0
I1
tRp351
(I3
S'|'
NNNI18
I1
I0
tbS'SOIJXXM12A8C1416D6'
tRp352
aa(lp353
F0
aF0
aF84.03546
aF0.32800000000000001
aF0
aF-26.265999999999998
aF115.642
aaa(lp354
(lp355
g4
(g5
(S'S18'
I0
I1
tRp356
(I3
S'|'
NNNI18
I1
I0
tbS'SOHMMMC12AB0181C42'
tRp357
aa(lp358
F0.19923826200067829
aF0
aF273.52771000000001
aF2.177
aF0
aF-6.3049999999999997
aF125.01300000000001
aaa(lp359
(lp360
g4
(g5
(S'S18'
I0
I1
tRp361
(I3
S'|'
NNNI18
I1
I0
tbS'SOVJXVJ12A8C13517D'
tRp362
aa(lp363
F0.26586104921065007
aF0
aF298.84035999999998
aF19.093
aF0
aF-9.9979999999999993
aF113.277
aaa(lp364
(lp365
g4
(g5
(S'S18'
I0
I1
tRp366
(I3
S'|'
NNNI18
I1
I0
tbS'SOFZCTA12AB0188D8F'
tRp367
aa(lp368
F0.23773394162247466
aF0
aF161.38404
aF0.16500000000000001
aF0
aF-9.1609999999999996
aF96.978999999999999
aaa(lp369
(lp370
g4
(g5
(S'S18'
I0
I1
tRp371
(I3
S'|'
NNNI18
I1
I0
tbS'SOLRYQR12A670215BF'
tRp372
aa(lp373
F0.82448212968243206
aF0
aF209.29261
aF0
aF0
aF-4.8650000000000002
aF140.995
aaa(lp374
(lp375
g4
(g5
(S'S18'
I0
I1
tRp376
(I3
S'|'
NNNI18
I1
I0
tbS'SOCHRXB12A8AE48069'
tRp377
aa(lp378
F0.62442549327076657
aF0
aF229.61587
aF0
aF0
aF-4.8819999999999997
aF105.206
aaa(lp379
(lp380
g4
(g5
(S'S18'
I0
I1
tRp381
(I3
S'|'
NNNI18
I1
I0
tbS'SOKBBXO12A6701DEA0'
tRp382
aa(lp383
F0.63553664862266857
aF0
aF426.89260999999999
aF0.28599999999999998
aF0
aF-12.951000000000001
aF63.017000000000003
aaa(lp384
(lp385
g4
(g5
(S'S18'
I0
I1
tRp386
(I3
S'|'
NNNI18
I1
I0
tbS'SOWHYUG12A58A77FAB'
tRp387
aa(lp388
Fnan
aF0
aF269.26974999999999
aF3.8889999999999998
aF0
aF-11.750999999999999
aF144.60300000000001
aaa(lp389
(lp390
g4
(g5
(S'S18'
I0
I1
tRp391
(I3
S'|'
NNNI18
I1
I0
tbS'SOYSTDI12A6D4F6500'
tRp392
aa(lp393
F0.19878534876524423
aF0
aF249.41668999999999
aF0.64700000000000002
aF0
aF-6.6929999999999996
aF167.91999999999999
aaa(lp394
(lp395
g4
(g5
(S'S18'
I0
I1
tRp396
(I3
S'|'
NNNI18
I1
I0
tbS'SOOOROX12A6D4F8400'
tRp397
aa(lp398
Fnan
aF0
aF136.48934
aF0.22900000000000001
aF0
aF-9.0909999999999993
aF129.12200000000001
aaa(lp399
(lp400
g4
(g5
(S'S18'
I0
I1
tRp401
(I3
S'|'
NNNI18
I1
I0
tbS'SONSPZE12AB01819CE'
tRp402
aa(lp403
F0
aF0
aF233.27302
aF0.38600000000000001
aF0
aF-2.6579999999999999
aF132.02199999999999
aaa(lp404
(lp405
g4
(g5
(S'S18'
I0
I1
tRp406
(I3
S'|'
NNNI18
I1
I0
tbS'SOHWGFU12AB017B036'
tRp407
aa(lp408
F0.24906579485370342
aF0
aF187.24526
aF0.107
aF0
aF-4.4199999999999999
aF183.91999999999999
aaa(lp409
(lp410
g4
(g5
(S'S18'
I0
I1
tRp411
(I3
S'|'
NNNI18
I1
I0
tbS'SOQQVQJ12AB0185192'
tRp412
aa(lp413
Fnan
aF0
aF72.619950000000003
aF0
aF0
aF-11.051
aF89.867000000000004
aaa(lp414
(lp415
g4
(g5
(S'S18'
I0
I1
tRp416
(I3
S'|'
NNNI18
I1
I0
tbS'SODRHHD12AB0189F2A'
tRp417
aa(lp418
Fnan
aF0
aF272.63954999999999
aF2.7749999999999999
aF0
aF-9.9700000000000006
aF119.896
aaa(lp419
(lp420
g4
(g5
(S'S18'
I0
I1
tRp421
(I3
S'|'
NNNI18
I1
I0
tbS'SOQGFVO12A8C13C8C3'
tRp422
aa(lp423
Fnan
aF0
aF142.75873000000001
aF0.218
aF0
aF-11.335000000000001
aF137.28999999999999
aaa(lp424
(lp425
g4
(g5
(S'S18'
I0
I1
tRp426
(I3
S'|'
NNNI18
I1
I0
tbS'SORABMD12A8C136672'
tRp427
aa(lp428
F0.38272328078919771
aF0
aF194.11546000000001
aF0.088999999999999996
aF0
aF-15.581
aF82.343000000000004
aaa(lp429
(lp430
g4
(g5
(S'S18'
I0
I1
tRp431
(I3
S'|'
NNNI18
I1
I0
tbS'SOTUBVH12AB018D2EC'
tRp432
aa(lp433
Fnan
aF0
aF195.91791000000001
aF0.16500000000000001
aF0
aF-11.98
aF91.486999999999995
aaa(lp434
(lp435
g4
(g5
(S'S18'
I0
I1
tRp436
(I3
S'|'
NNNI18
I1
I0
tbS'SOMQAGT12A8C132DB4'
tRp437
aa(lp438
Fnan
aF0
aF118.33423999999999
aF0
aF0
aF-11.215
aF84.689999999999998
aaa(lp439
(lp440
g4
(g5
(S'S18'
I0
I1
tRp441
(I3
S'|'
NNNI18
I1
I0
tbS'SOKLLOH12A67020F2C'
tRp442
aa(lp443
F0.72512128356731009
aF0
aF288.41750999999999
aF0.113
aF0
aF-8.1649999999999991
aF115.60599999999999
aaa(lp444
(lp445
g4
(g5
(S'S18'
I0
I1
tRp446
(I3
S'|'
NNNI18
I1
I0
tbS'SONRLQH12AB017C232'
tRp447
aa(lp448
Fnan
aF0
aF123.21914
aF1.0009999999999999
aF0
aF-12.69
aF126.523
aaa(lp449
(lp450
g4
(g5
(S'S18'
I0
I1
tRp451
(I3
S'|'
NNNI18
I1
I0
tbS'SODDZAD12A6701DC4C'
tRp452
aa(lp453
F0.66517224076219728
aF0
aF283.76771000000002
aF0
aF0
aF-8.6999999999999993
aF113.67700000000001
aaa(lp454
(lp455
g4
(g5
(S'S18'
I0
I1
tRp456
(I3
S'|'
NNNI18
I1
I0
tbS'SORENXV12A6701F61F'
tRp457
aa(lp458
F0.55465476746561182
aF0
aF239.3073
aF0.182
aF0
aF-5.758
aF86.938000000000002
aaa(lp459
(lp460
g4
(g5
(S'S18'
I0
I1
tRp461
(I3
S'|'
NNNI18
I1
I0
tbS'SOYMMDY12AB01825B2'
tRp462
aa(lp463
F0.30416950343527516
aF0
aF206.75873000000001
aF0.096000000000000002
aF0
aF-4.907
aF141.93600000000001
aaa(lp464
(lp465
g4
(g5
(S'S18'
I0
I1
tRp466
(I3
S'|'
NNNI18
I1
I0
tbS'SOJWQIP12A6D4F710A'
tRp467
aa(lp468
Fnan
aF0
aF134.81751
aF0
aF0
aF-8.1329999999999991
aF106.04900000000001
aaa(lp469
(lp470
g4
(g5
(S'S18'
I0
I1
tRp471
(I3
S'|'
NNNI18
I1
I0
tbS'SOOVOKS12AB017EE57'
tRp472
aa(lp473
Fnan
aF0
aF285.64852999999999
aF0.39700000000000002
aF0
aF-9.093
aF126.88
aaa(lp474
(lp475
g4
(g5
(S'S18'
I0
I1
tRp476
(I3
S'|'
NNNI18
I1
I0
tbS'SORWHWY12A6702038E'
tRp477
aa(lp478
F0.57010593005838783
aF0
aF124.18567
aF0
aF0
aF-10.295999999999999
aF85.007999999999996
aaa(lp479
(lp480
g4
(g5
(S'S18'
I0
I1
tRp481
(I3
S'|'
NNNI18
I1
I0
tbS'SOGYYLE12A8C13E5EA'
tRp482
aa(lp483
Fnan
aF0
aF134.08608000000001
aF4.4409999999999998
aF0
aF-12.839
aF133.69900000000001
aaa(lp484
(lp485
g4
(g5
(S'S18'
I0
I1
tRp486
(I3
S'|'
NNNI18
I1
I0
tbS'SOITUXQ12AB0183AE9'
tRp487
aa(lp488
Fnan
aF0
aF155.61098000000001
aF0.154
aF0
aF-13.710000000000001
aF118.97499999999999
aaa(lp489
(lp490
g4
(g5
(S'S18'
I0
I1
tRp491
(I3
S'|'
NNNI18
I1
I0
tbS'SOTWEZZ12A8C142B60'
tRp492
aa(lp493
Fnan
aF0
aF275.40852999999998
aF0
aF0
aF-2.1190000000000002
aF102.408
aaa(lp494
(lp495
g4
(g5
(S'S18'
I0
I1
tRp496
(I3
S'|'
NNNI18
I1
I0
tbS'SOUVRGZ12A58A77F90'
tRp497
aa(lp498
F0
aF0
aF223.47710000000001
aF0.29099999999999998
aF0
aF-14.438000000000001
aF112.006
aaa(lp499
(lp500
g4
(g5
(S'S18'
I0
I1
tRp501
(I3
S'|'
NNNI18
I1
I0
tbS'SOBLTSM12A6D4F9EEA'
tRp502
aa(lp503
F0.27077599894632748
aF0
aF443.24525999999997
aF0.23000000000000001
aF0
aF-13.002000000000001
aF45.527000000000001
aaa.