(lp1
(lp2
F108.16395614457832
aF0.17209638554216869
aF108.82449251453473
aF0.45573255813953512
aF0
aa(lp3
F71.968278904109582
aF0.12256164383561648
aF73.201140795262333
aF0.61600846023688693
aF1969
aa(lp4
F86.79624993127149
aF0.43054982817869403
aF86.647262542955261
aF0.33256013745704482
aF0
aa(lp5
F115.9885320869565
aF0.11860869565217391
aF116.61743100649349
aF0.26019155844155878
aF1982
aa(lp6
F101.83981909090912
aF0.1279363636363636
aF102.5309116009019
aF0.25752874859075531
aF2007
aa(lp7
F128.86190004761903
aF0.25881428571428566
aF129.3755804344392
aF0.18720458135860993
aF0
aa(lp8
F56.88602368663593
aF0.49478341013824867
aF56.754003110599122
aF0.28627880184331816
aF0
aa(lp9
F90.861161067961149
aF0.13600970873786414
aF92.002316757188538
aF0.20732747603833895
aF0
aa(lp10
F130.29672118279569
aF0.13904301075268813
aF133.57381855548269
aF0.17884766907419597
aF1984
aa(lp11
F130.10139443548388
aF0.34265322580645169
aF131.54920554999995
aF0.90414600000000134
aF0
aa(lp12
F106.26844349999993
aF0.38714038461538508
aF106.26855067372473
aF0.16967949951876773
aF0
aa(lp13
F119.48561068376067
aF0.086393162393162332
aF120.37552094080333
aF0.42022093023255863
aF0
aa(lp14
F111.05868149999998
aF0.062816666666666632
aF111.98164058702362
aF0.7004098867147277
aF0
aa(lp15
F95.301120760368633
aF0.63488018433179749
aF95.300975339470611
aF0.50717836593786036
aF0
aa(lp16
F152.58433264150941
aF0.11885377358490563
aF153.30235113725476
aF0.4662619607843142
aF1986
aa(lp17
F246.67117772357713
aF0.14376422764227645
aF247.83095691569909
aF0.43320393740535051
aF1987
aa(lp18
F111.57751010526313
aF0.14604210526315792
aF112.28204426778244
aF0.43633821478382001
aF0
aa(lp19
F300.42146661224473
aF0.082763265306122463
aF301.40012516038735
aF0.43707281059062958
aF0
aa(lp20
F141.6866459887006
aF0.20666666666666675
aF142.78891222689086
aF0.2316022408963582
aF2004
aa(lp21
F79.671096847826078
aF0.13616304347826091
aF80.32508962110964
aF0.38667523680649502
aF0
aa(lp22
F71.959822941176469
aF0.10391176470588237
aF72.906567862232748
aF0.44913064133016606
aF0
aa(lp23
F108.01089302798981
aF0.60477099236641241
aF108.00977459974578
aF0.40728335451080039
aF0
aa(lp24
F125.99701766666665
aF0.1497
aF126.44876405840891
aF0.14074018126888205
aF0
aa(lp25
F102.49710866197182
aF0.095218309859154873
aF102.94666697552454
aF0.23953234265734283
aF2004
aa(lp26
F60.940815142857133
aF0.10587142857142851
aF62.141809912280728
aF0.67917192982456143
aF1985
aa(lp27
F113.1878612803889
aF0.34907617504051847
aF113.18837060827252
aF0.12241281427412831
aF0
aa(lp28
F167.67375268571425
aF0.18326857142857148
aF168.8726886089425
aF0.65566572036905701
aF0
aa(lp29
F92.888852266187072
aF0.33977697841726623
aF92.666663645083986
aF0.3492218225419666
aF2005
aa(lp30
F82.956080454545472
aF0.13354545454545461
aF83.428478519040837
aF0.56761354019746091
aF1997
aa(lp31
F73.861617088607602
aF0.19802531645569624
aF75.812123880903442
aF0.15627104722792612
aF1961
aa(lp32
F167.97499940886698
aF0.14061576354679803
aF169.03208176800007
aF0.13031360000000003
aF1972
aa(lp33
F239.5542378623189
aF0.1508514492753624
aF240.74947177667255
aF0.2862310126582277
aF0
aa(lp34
F78.603917894736867
aF0.52213742690058507
aF78.603761581259121
aF0.33119765739385082
aF1964
aa(lp35
F65.882998068181806
aF0.27345454545454551
aF65.789651576704557
aF0.14372443181818201
aF1992
aa(lp36
F84.815154873949595
aF0.48429411764705865
aF85.08382433823536
aF0.38530567226890772
aF0
aa(lp37
F150.84236361445787
aF0.21407530120481927
aF151.24244241500008
aF0.21398250000000021
aF1997
aa(lp38
F221.88770731404966
aF0.12688842975206621
aF223.11355590862289
aF0.13968945379594613
aF0
aa(lp39
F147.50451398734168
aF0.15123417721518986
aF148.16257810493335
aF0.18927329678935015
aF0
aa(lp40
F62.934973548387077
aF0.2072258064516129
aF62.944246675392677
aF0.098549738219895267
aF0
aa(lp41
F224.63569880239535
aF0.10728143712574853
aF227.20978035542413
aF0.32524287300999694
aF0
aa(lp42
F93.264663678160915
aF0.13209195402298848
aF95.843214838420039
aF0.069768402154398682
aF2007
aa(lp43
F42.372854878048777
aF0.1168780487804878
aF43.595056439169149
aF0.24154896142433235
aF2003
aa(lp44
F134.40116798701297
aF0.56762012987012977
aF134.5091670616884
aF0.21737581168831166
aF0
aa(lp45
F110.32912166666672
aF0.15717592592592597
aF111.73788568807342
aF0.60512844036697278
aF0
aa(lp46
F89.312576842105273
aF0.12230263157894737
aF89.899722470076227
aF0.13848095756256837
aF1995
aa(lp47
F136.94166902912619
aF0.058223300970873776
aF138.60839030084222
aF0.8329362214199767
aF2004
aa(lp48
F123.35459327731094
aF0.12529411764705889
aF124.50009306889342
aF0.41586221294363263
aF1992
aa(lp49
F92.564014062500007
aF0.08127083333333332
aF94.394546018041282
aF0.37025644329896895
aF2002
aa(lp50
F85.285000297029697
aF0.13190099009900993
aF86.024880098280136
aF0.82609213759213729
aF2006
aa(lp51
F107.28441779069766
aF0.14262790697674413
aF108.38192977519928
aF0.10092748368382876
aF1995
aa(lp52
F171.07600167990927
aF0.38041316685584536
aF171.17314011918279
aF0.20043870601589078
aF1974
aa(lp53
F124.26659942857142
aF0.077542857142857122
aF125.99298106046498
aF0.41130511627906918
aF2009
aa(lp54
F132.58255396039598
aF0.074673267326732642
aF134.57121448954484
aF0.47470110701106988
aF1997
aa(lp55
F101.03541284482762
aF0.17019612068965528
aF101.03323647249196
aF0.16432146709816611
aF1977
aa(lp56
F90.936257628205126
aF0.1312756410256411
aF91.444813059105329
aF0.24251517571884995
aF0
aa(lp57
F118.33950567415721
aF0.12925280898876398
aF119.17220167714888
aF0.27218448637316595
aF1986
aa(lp58
F57.826279599999999
aF0.11951999999999996
aF59.583562920245349
aF0.41896564417177912
aF1966
aa(lp59
F100.85314236363635
aF0.076145454545454544
aF104.05694825567495
aF0.12436917562724024
aF1985
aa(lp60
F149.73591577922079
aF0.13691558441558443
aF151.72947799999992
aF0.23323040000000023
aF1995
aa(lp61
F113.94351168260039
aF0.4466405353728487
aF114.05266751434046
aF0.20473996175908227
aF1997
aa(lp62
F117.97512304761904
aF0.10763809523809524
aF118.9561947635935
aF0.10204846335697423
aF0
aa(lp63
F111.44798750000001
aF0.16005
aF113.28680510429461
aF0.38109693251533688
aF0
aa(lp64
F80.089172760736218
aF0.24189570552147235
aF80.933007736040594
aF0.068405076142132024
aF2000
aa(lp65
F92.013061685393268
aF0.13449438202247188
aF93.164119764542988
aF0.27645567867036014
aF2003
aa(lp66
F134.1447462280702
aF0.060754385964912234
aF135.68905068797406
aF0.42557421451787619
aF0
aa(lp67
F97.388269134615399
aF0.26367307692307679
aF98.556450582639712
aF0.42164090368608853
aF0
aa(lp68
F71.259581839080468
aF0.093954022988505748
aF72.040982972973012
aF0.16771123755334297
aF1992
aa(lp69
F141.44803114457829
aF0.071307228915662643
aF142.18857165550236
aF0.068753110047846927
aF0
aa(lp70
F122.74773026315791
aF0.1143157894736842
aF123.27314053318821
aF0.34725462459194745
aF1990
aa(lp71
F39.336848205128206
aF0.14410256410256411
aF40.597051798107252
aF0.089031545741325047
aF1985
aa(lp72
F133.63771489208631
aF0.15850359712230222
aF134.59924835860841
aF0.64801873327386283
aF2000
aa(lp73
F146.46017507142858
aF0.13230000000000003
aF147.64896337188614
aF0.36563167259786489
aF0
aa(lp74
F78.910906249999996
aF0.135859375
aF80.302435418671877
aF0.69090279114533171
aF1997
aa(lp75
F103.47041363449689
aF0.47741683778234117
aF103.47066133333333
aF0.27099179487179481
aF0
aa(lp76
F112.09806339999997
aF0.23704000000000003
aF112.89131683823523
aF0.349073529411765
aF2004
aa(lp77
F209.29939536363636
aF0.14306363636363642
aF211.44140679054061
aF0.56610698198198184
aF2000
aa(lp78
F132.83524583850928
aF0.14049068322981365
aF133.76992851851853
aF0.17704166666666679
aF0
aa(lp79
F120.50647029585797
aF0.16913017751479295
aF121.67184952276065
aF0.3001130690161527
aF0
aa(lp80
F67.910711609589029
aF0.51813698630136995
aF68.026714623287688
aF0.47043493150684901
aF1963
aa(lp81
F115.06821976377952
aF0.11462204724409443
aF115.86271534313717
aF0.30944999999999967
aF2001
aa(lp82
F89.650385628415293
aF0.50530601092896177
aF89.650423976342125
aF0.2949008189262961
aF2005
aa(lp83
F33.083024800000004
aF0.13067999999999999
aF35.614246115107868
aF0.082398081534772238
aF0
aa(lp84
F135.80990361111108
aF0.14082407407407416
aF136.68458575506455
aF0.11938674033149166
aF0
aa(lp85
F67.284816794871787
aF0.11220512820512821
aF68.921525189873449
aF0.38084493670886022
aF0
aa(lp86
F93.283420540540519
aF0.49927413127413112
aF93.284454277456604
aF0.3012947976878611
aF2002
aa(lp87
F95.991189999999989
aF0.21579452054794515
aF97.499364747252756
aF0.092543956043956085
aF1990
aa(lp88
F60.247330000000005
aF0.048074074074074075
aF58.656955230460945
aF0.089913827655310613
aF1999
aa(lp89
F143.50076589928054
aF0.13497122302158271
aF144.78361267202843
aF0.55849687220732702
aF2005
aa(lp90
F59.513549203187246
aF0.49575697211155356
aF59.513008682634741
aF0.30821357285429146
aF0
aa(lp91
F139.0241787121212
aF0.11723484848484848
aF140.21898908662902
aF0.27247269303201493
aF1990
aa(lp92
F113.20982650000001
aF0.19142500000000001
aF113.88699575414786
aF0.14806485671191569
aF0
aa(lp93
F98.792856495726511
aF0.1314273504273504
aF99.427130873269363
aF0.2586687965921195
aF0
aa(lp94
F66.257655236051463
aF0.39612017167381974
aF66.399412296137328
aF0.44021673819742529
aF0
aa(lp95
F140.14742743243241
aF0.073094594594594595
aF141.09284608732165
aF0.38222837951301375
aF0
aa(lp96
F58.311204482758619
aF0.025413793103448275
aF61.841666041275815
aF0.24299249530956846
aF2001
aa(lp97
F65.950977559322055
aF0.17763389830508466
aF66.063238932203419
aF0.55812542372881435
aF0
aa(lp98
F75.091354161073824
aF0.33575167785234911
aF75.218044144295334
aF0.55459563758389274
aF0
aa(lp99
F135.75191491379309
aF0.10544827586206892
aF136.77666739270376
aF0.27911158798283209
aF0
aa(lp100
F109.31820696078432
aF0.12041176470588236
aF110.38842785454536
aF0.63318424242424221
aF1961
aa(lp101
F210.64322117647052
aF0.11264705882352942
aF220.33163915178582
aF0.070217261904761977
aF0
aa.