(lp1
(lp2
(lp3
cnumpy.core.multiarray
scalar
p4
(cnumpy
dtype
p5
(S'S18'
I0
I1
tRp6
(I3
S'|'
NNNI18
I1
I0
tbS'SOMZWCG12A8C13C480'
tRp7
ag4
(g5
(S'S6'
I0
I1
tRp8
(I3
S'|'
NNNI6
I1
I0
tbS'Casual'
tRp9
ag4
(g5
(S'S16'
I0
I1
tRp10
(I3
S'|'
NNNI16
I1
I0
tbS"I Didn't Mean To"
tRp11
aa(lp12
F0.40199754336428362
aF218.93179000000001
aF0.247
aF-11.196999999999999
aF218.93199999999999
aaa(lp13
(lp14
g4
(g5
(S'S18'
I0
I1
tRp15
(I3
S'|'
NNNI18
I1
I0
tbS'SOCIWDW12A8C13D406'
tRp16
ag4
(g5
(S'S12'
I0
I1
tRp17
(I3
S'|'
NNNI12
I1
I0
tbS'The Box Tops'
tRp18
ag4
(g5
(S'S9'
I0
I1
tRp19
(I3
S'|'
NNNI9
I1
I0
tbS'Soul Deep'
tRp20
aa(lp21
F0.41749964497097841
aF148.03546
aF0.14799999999999999
aF-9.843
aF137.91499999999999
aaa(lp22
(lp23
g4
(g5
(S'S18'
I0
I1
tRp24
(I3
S'|'
NNNI18
I1
I0
tbS'SOXVLOJ12AB0189215'
tRp25
ag4
(g5
(S'S16'
I0
I1
tRp26
(I3
S'|'
NNNI16
I1
I0
tbS'Sonora Santanera'
tRp27
ag4
(g5
(S'S15'
I0
I1
tRp28
(I3
S'|'
NNNI15
I1
I0
tbS'Amor De Cabaret'
tRp29
aa(lp30
F0.34342837829688244
aF177.47546
aF0.28199999999999997
aF-9.6890000000000001
aF172.304
aaa(lp31
(lp32
g4
(g5
(S'S18'
I0
I1
tRp33
(I3
S'|'
NNNI18
I1
I0
tbS'SONHOTT12A8C13493C'
tRp34
ag4
(g5
(S'S8'
I0
I1
tRp35
(I3
S'|'
NNNI8
I1
I0
tbS'Adam Ant'
tRp36
ag4
(g5
(S'S15'
I0
I1
tRp37
(I3
S'|'
NNNI15
I1
I0
tbS'Something Girls'
tRp38
aa(lp39
F0.45423115657062052
aF233.40362999999999
aF0
aF-9.0129999999999999
aF217.124
aaa(lp40
(lp41
g4
(g5
(S'S18'
I0
I1
tRp42
(I3
S'|'
NNNI18
I1
I0
tbS'SOFSOCN12A8C143F5D'
tRp43
ag4
(g5
(S'S3'
I0
I1
tRp44
(I3
S'|'
NNNI3
I1
I0
tbS'Gob'
tRp45
ag4
(g5
(S'S14'
I0
I1
tRp46
(I3
S'|'
NNNI14
I1
I0
tbS'Face the Ashes'
tRp47
aa(lp48
F0.40172368550367865
aF209.60607999999999
aF0.066000000000000003
aF-4.5010000000000003
aF198.69900000000001
aaa(lp49
(lp50
g4
(g5
(S'S18'
I0
I1
tRp51
(I3
S'|'
NNNI18
I1
I0
tbS'SOYMRWW12A6D4FAB14'
tRp52
ag4
(g5
(S'S21'
I0
I1
tRp53
(I3
S'|'
NNNI21
I1
I0
tbS'Jeff And Sheri Easter'
tRp54
ag4
(g5
(S'S43'
I0
I1
tRp55
(I3
S'|'
NNNI43
I1
I0
tbS'The Moon And I (Ordinary Day Album Version)'
tRp56
aa(lp57
F0.38547055055582102
aF267.70240000000001
aF2.2639999999999998
aF-9.3230000000000004
aF254.27000000000001
aaa(lp58
(lp59
g4
(g5
(S'S18'
I0
I1
tRp60
(I3
S'|'
NNNI18
I1
I0
tbS'SOMJBYD12A6D4F8557'
tRp61
ag4
(g5
(S'S7'
I0
I1
tRp62
(I3
S'|'
NNNI7
I1
I0
tbS'Rated R'
tRp63
ag4
(g5
(S'S21'
I0
I1
tRp64
(I3
S'|'
NNNI21
I1
I0
tbS'Keepin It Real (Skit)'
tRp65
aa(lp66
F0.26194117738084738
aF114.78158999999999
aF0.096000000000000002
aF-17.302
aF114.782
aaa(lp67
(lp68
g4
(g5
(S'S18'
I0
I1
tRp69
(I3
S'|'
NNNI18
I1
I0
tbS'SOHKNRJ12A6701D1F8'
tRp70
ag4
(g5
(S'S21'
I0
I1
tRp71
(I3
S'|'
NNNI21
I1
I0
tbS'Tweeterfriendly Music'
tRp72
ag4
(g5
(S'S12'
I0
I1
tRp73
(I3
S'|'
NNNI12
I1
I0
tbS'Drop of Rain'
tRp74
aa(lp75
F0.60550713569057524
aF189.57015999999999
aF0.31900000000000001
aF-11.641999999999999
aF181.023
aaa(lp76
(lp77
g4
(g5
(S'S18'
I0
I1
tRp78
(I3
S'|'
NNNI18
I1
I0
tbS'SOIAZJW12AB01853F1'
tRp79
ag4
(g5
(S'S16'
I0
I1
tRp80
(I3
S'|'
NNNI16
I1
I0
tbS'Planet P Project'
tRp81
ag4
(g5
(S'S10'
I0
I1
tRp82
(I3
S'|'
NNNI10
I1
I0
tbS'Pink World'
tRp83
aa(lp84
F0.33227574659906806
aF269.81832000000003
aF5.2999999999999998
aF-13.496
aF258.99000000000001
aaa(lp85
(lp86
g4
(g5
(S'S18'
I0
I1
tRp87
(I3
S'|'
NNNI18
I1
I0
tbS'SOUDSGM12AC9618304'
tRp88
ag4
(g5
(S'S3'
I0
I1
tRp89
(I3
S'|'
NNNI3
I1
I0
tbS'Clp'
tRp90
ag4
(g5
(S'S33'
I0
I1
tRp91
(I3
S'|'
NNNI33
I1
I0
tbS'Insatiable (Instrumental Version)'
tRp92
aa(lp93
F0.42270564102939107
aF266.39627999999999
aF0.084000000000000005
aF-6.6970000000000001
aF261.74700000000001
aaa(lp94
(lp95
g4
(g5
(S'S18'
I0
I1
tRp96
(I3
S'|'
NNNI18
I1
I0
tbS'SOQHXMF12AB0182363'
tRp97
ag4
(g5
(S'S12'
I0
I1
tRp98
(I3
S'|'
NNNI12
I1
I0
tbS'JennyAnyKind'
tRp99
ag4
(g5
(S'S15'
I0
I1
tRp100
(I3
S'|'
NNNI15
I1
I0
tbS'Young Boy Blues'
tRp101
aa(lp102
F0.29626895431146333
aF218.77506
aF2.125
aF-10.021000000000001
aF207.012
aaa(lp103
(lp104
g4
(g5
(S'S18'
I0
I1
tRp105
(I3
S'|'
NNNI18
I1
I0
tbS'SOKEJEJ12A8C13E0D0'
tRp106
ag4
(g5
(S'S12'
I0
I1
tRp107
(I3
S'|'
NNNI12
I1
I0
tbS'Wayne Watson'
tRp108
ag4
(g5
(S'S24'
I0
I1
tRp109
(I3
S'|'
NNNI24
I1
I0
tbS'The Urgency (LP Version)'
tRp110
aa(lp111
F0.35155586118563925
aF245.21098000000001
aF0.35699999999999998
aF-7.5449999999999999
aF227.47999999999999
aaa(lp112
(lp113
g4
(g5
(S'S18'
I0
I1
tRp114
(I3
S'|'
NNNI18
I1
I0
tbS'SOMUYGI12AB0188633'
tRp115
ag4
(g5
(S'S9'
I0
I1
tRp116
(I3
S'|'
NNNI9
I1
I0
tbS'Andy Andy'
tRp117
ag4
(g5
(S'S8'
I0
I1
tRp118
(I3
S'|'
NNNI8
I1
I0
tbS'La Culpa'
tRp119
aa(lp120
F0.37948217028046749
aF226.35057
aF0
aF-6.6319999999999997
aF221.553
aaa(lp121
(lp122
g4
(g5
(S'S18'
I0
I1
tRp123
(I3
S'|'
NNNI18
I1
I0
tbS'SORAMLE12AB017C8B0'
tRp124
ag4
(g5
(S'S9'
I0
I1
tRp125
(I3
S'|'
NNNI9
I1
I0
tbS'Bob Azzam'
tRp126
ag4
(g5
(S'S14'
I0
I1
tRp127
(I3
S'|'
NNNI14
I1
I0
tbS'Auguri Cha Cha'
tRp128
aa(lp129
F0.25193652476242323
aF191.84280999999999
aF0.38
aF-7.75
aF188.42400000000001
aaa(lp130
(lp131
g4
(g5
(S'S18'
I0
I1
tRp132
(I3
S'|'
NNNI18
I1
I0
tbS'SOBONFF12A6D4F84D8'
tRp133
ag4
(g5
(S'S13'
I0
I1
tRp134
(I3
S'|'
NNNI13
I1
I0
tbS'Lionel Richie'
tRp135
ag4
(g5
(S'S23'
I0
I1
tRp136
(I3
S'|'
NNNI23
I1
I0
tbS'Tonight Will Be Alright'
tRp137
aa(lp138
F0.55307199146197528
aF307.38240000000002
aF0.61199999999999999
aF-8.3460000000000001
aF296.65800000000002
aaa(lp139
(lp140
g4
(g5
(S'S18'
I0
I1
tRp141
(I3
S'|'
NNNI18
I1
I0
tbS'SOHUOAP12A8AE488E9'
tRp142
ag4
(g5
(S'S10'
I0
I1
tRp143
(I3
S'|'
NNNI10
I1
I0
tbS'Blue Rodeo'
tRp144
ag4
(g5
(S'S8'
I0
I1
tRp145
(I3
S'|'
NNNI8
I1
I0
tbS'Floating'
tRp146
aa(lp147
F0.44793548047950221
aF491.12770999999998
aF0
aF-8.5760000000000005
aF486.03399999999999
aaa(lp148
(lp149
g4
(g5
(S'S18'
I0
I1
tRp150
(I3
S'|'
NNNI18
I1
I0
tbS'SOUQQEA12A8C134B1B'
tRp151
ag4
(g5
(S'S15'
I0
I1
tRp152
(I3
S'|'
NNNI15
I1
I0
tbS'Richard Souther'
tRp153
ag4
(g5
(S'S9'
I0
I1
tRp154
(I3
S'|'
NNNI9
I1
I0
tbS'High Tide'
tRp155
aa(lp156
F0.33080635685585685
aF228.59710000000001
aF0.223
aF-16.109999999999999
aF217.42599999999999
aaa(lp157
(lp158
g4
(g5
(S'S18'
I0
I1
tRp159
(I3
S'|'
NNNI18
I1
I0
tbS'SOILPQQ12AB017E82A'
tRp160
ag4
(g5
(S'S13'
I0
I1
tRp161
(I3
S'|'
NNNI13
I1
I0
tbS'Faiz Ali Faiz'
tRp162
ag4
(g5
(S'S20'
I0
I1
tRp163
(I3
S'|'
NNNI20
I1
I0
tbS'Sohna Nee Sohna Data'
tRp164
aa(lp165
F0.30667609347902947
aF599.24852999999996
aF1.1930000000000001
aF-8.032
aF591.99900000000002
aaa(lp166
(lp167
g4
(g5
(S'S18'
I0
I1
tRp168
(I3
S'|'
NNNI18
I1
I0
tbS'SOXLBJT12A8C140925'
tRp169
ag4
(g5
(S'S5'
I0
I1
tRp170
(I3
S'|'
NNNI5
I1
I0
tbS'Tesla'
tRp171
ag4
(g5
(S'S17'
I0
I1
tRp172
(I3
S'|'
NNNI17
I1
I0
tbS'Caught In A Dream'
tRp173
aa(lp174
F0.51346328970215582
aF290.29831999999999
aF0.14499999999999999
aF-5.2709999999999999
aF285.60500000000002
aaa(lp175
(lp176
g4
(g5
(S'S18'
I0
I1
tRp177
(I3
S'|'
NNNI18
I1
I0
tbS'SOZVMJI12AB01808AF'
tRp178
ag4
(g5
(S'S9'
I0
I1
tRp179
(I3
S'|'
NNNI9
I1
I0
tbS'lextrical'
tRp180
ag4
(g5
(S'S15'
I0
I1
tRp181
(I3
S'|'
NNNI15
I1
I0
tbS'Synthetic Dream'
tRp182
aa(lp183
F0
aF165.69424000000001
aF0.16200000000000001
aF-6.7869999999999999
aF157.39099999999999
aaa(lp184
(lp185
g4
(g5
(S'S18'
I0
I1
tRp186
(I3
S'|'
NNNI18
I1
I0
tbS'SOWTBJW12AC468AC6E'
tRp187
ag4
(g5
(S'S12'
I0
I1
tRp188
(I3
S'|'
NNNI12
I1
I0
tbS'Jimmy Wakely'
tRp189
ag4
(g5
(S'S26'
I0
I1
tRp190
(I3
S'|'
NNNI26
I1
I0
tbS'Broken-Down Merry-Go-Round'
tRp191
aa(lp192
F0.29153972708877773
aF151.84934000000001
aF2.827
aF-15.221
aF146.19900000000001
aaa(lp193
(lp194
g4
(g5
(S'S18'
I0
I1
tRp195
(I3
S'|'
NNNI18
I1
I0
tbS'SOBEBDG12A58A76D60'
tRp196
ag4
(g5
(S'S12'
I0
I1
tRp197
(I3
S'|'
NNNI12
I1
I0
tbS'Alice Stuart'
tRp198
ag4
(g5
(S'S12'
I0
I1
tRp199
(I3
S'|'
NNNI12
I1
I0
tbS'Kassie Jones'
tRp200
aa(lp201
F0.32855301501801859
aF220.78648999999999
aF0.20599999999999999
aF-8.5139999999999993
aF207.65600000000001
aaa(lp202
(lp203
g4
(g5
(S'S18'
I0
I1
tRp204
(I3
S'|'
NNNI18
I1
I0
tbS'SOZCTXZ12AB0182364'
tRp205
ag4
(g5
(S'S5'
I0
I1
tRp206
(I3
S'|'
NNNI5
I1
I0
tbS'Elena'
tRp207
ag4
(g5
(S'S14'
I0
I1
tRp208
(I3
S'|'
NNNI14
I1
I0
tbS'Setanta matins'
tRp209
aa(lp210
F0.37825468551016656
aF269.58321999999998
aF0
aF-8.0500000000000007
aF256.16800000000001
aaa(lp211
(lp212
g4
(g5
(S'S18'
I0
I1
tRp213
(I3
S'|'
NNNI18
I1
I0
tbS'SOBBUGU12A8C13E95D'
tRp214
ag4
(g5
(S'S25'
I0
I1
tRp215
(I3
S'|'
NNNI25
I1
I0
tbS'The Dillinger Escape Plan'
tRp216
ag4
(g5
(S'S31'
I0
I1
tRp217
(I3
S'|'
NNNI31
I1
I0
tbS'Setting Fire to Sleeping Giants'
tRp218
aa(lp219
F0.54188897203364694
aF207.77751000000001
aF0.060999999999999999
aF-4.2640000000000002
aF204.696
aaa(lp220
(lp221
g4
(g5
(S'S18'
I0
I1
tRp222
(I3
S'|'
NNNI18
I1
I0
tbS'SOBLGCN12AB0183212'
tRp223
ag4
(g5
(S'S12'
I0
I1
tRp224
(I3
S'|'
NNNI12
I1
I0
tbS'SUE THOMPSON'
tRp225
ag4
(g5
(S'S30'
I0
I1
tRp226
(I3
S'|'
NNNI30
I1
I0
tbS'James (Hold The Ladder Steady)'
tRp227
aa(lp228
F0.3062422642462862
aF124.86485
aF0
aF-12.332000000000001
aF115.73999999999999
aaa(lp229
(lp230
g4
(g5
(S'S18'
I0
I1
tRp231
(I3
S'|'
NNNI18
I1
I0
tbS'SOPSWQW12A6D4F8781'
tRp232
ag4
(g5
(S'S14'
I0
I1
tRp233
(I3
S'|'
NNNI14
I1
I0
tbS'Five Bolt Main'
tRp234
ag4
(g5
(S'S21'
I0
I1
tRp235
(I3
S'|'
NNNI21
I1
I0
tbS'Made Like This (Live)'
tRp236
aa(lp237
F0.3636513650591166
aF225.09669
aF0
aF-5.9080000000000004
aF225.09700000000001
aaa(lp238
(lp239
g4
(g5
(S'S18'
I0
I1
tRp240
(I3
S'|'
NNNI18
I1
I0
tbS'SOZQDIU12A58A7BCF6'
tRp241
ag4
(g5
(S'S3'
I0
I1
tRp242
(I3
S'|'
NNNI3
I1
I0
tbS'Clp'
tRp243
ag4
(g5
(S'S17'
I0
I1
tRp244
(I3
S'|'
NNNI17
I1
I0
tbS'Superconfidential'
tRp245
aa(lp246
F0.42270564102939107
aF338.31137999999999
aF0
aF-6.4859999999999998
aF338.31099999999998
aaa(lp247
(lp248
g4
(g5
(S'S18'
I0
I1
tRp249
(I3
S'|'
NNNI18
I1
I0
tbS'SONYPOM12A8C13B2D7'
tRp250
ag4
(g5
(S'S10'
I0
I1
tRp251
(I3
S'|'
NNNI10
I1
I0
tbS'Tim Wilson'
tRp252
ag4
(g5
(S'S51'
I0
I1
tRp253
(I3
S'|'
NNNI51
I1
I0
tbS'I Think My Wife Is Running Around On Me (Taco Hell)'
tRp254
aa(lp255
F0.34991261167456278
aF186.48770999999999
aF1.083
aF-4.516
aF175.46700000000001
aaa(lp256
(lp257
g4
(g5
(S'S18'
I0
I1
tRp258
(I3
S'|'
NNNI18
I1
I0
tbS'SOBZBAZ12A6D4F8742'
tRp259
ag4
(g5
(S'S11'
I0
I1
tRp260
(I3
S'|'
NNNI11
I1
I0
tbS'Willie Bobo'
tRp261
ag4
(g5
(S'S14'
I0
I1
tRp262
(I3
S'|'
NNNI14
I1
I0
tbS'Spanish Grease'
tRp263
aa(lp264
F0.37967112474986731
aF168.25424000000001
aF0.20000000000000001
aF-9.6159999999999997
aF161.88999999999999
aaa(lp265
(lp266
g4
(g5
(S'S18'
I0
I1
tRp267
(I3
S'|'
NNNI18
I1
I0
tbS'SOVYKGO12AB0187199'
tRp268
ag4
(g5
(S'S10'
I0
I1
tRp269
(I3
S'|'
NNNI10
I1
I0
tbS'Faye Adams'
tRp270
ag4
(g5
(S'S20'
I0
I1
tRp271
(I3
S'|'
NNNI20
I1
I0
tbS'Crazy Mixed Up World'
tRp272
aa(lp273
F0.2992303679293693
aF156.39465000000001
aF0.56200000000000006
aF-18.050999999999998
aF150.63399999999999
aaa(lp274
(lp275
g4
(g5
(S'S18'
I0
I1
tRp276
(I3
S'|'
NNNI18
I1
I0
tbS'SOGNCJP12A58A80271'
tRp277
ag4
(g5
(S'S13'
I0
I1
tRp278
(I3
S'|'
NNNI13
I1
I0
tbS'Terry Callier'
tRp279
ag4
(g5
(S'S28'
I0
I1
tRp280
(I3
S'|'
NNNI28
I1
I0
tbS'Do You Finally Need A Friend'
tRp281
aa(lp282
F0.4161730646266773
aF342.56934000000001
aF0.063
aF-11.939
aF333.154
aaa(lp283
(lp284
g4
(g5
(S'S18'
I0
I1
tRp285
(I3
S'|'
NNNI18
I1
I0
tbS'SOLLHMX12AB01846DC'
tRp286
ag4
(g5
(S'S11'
I0
I1
tRp287
(I3
S'|'
NNNI11
I1
I0
tbS'John Wesley'
tRp288
ag4
(g5
(S'S17'
I0
I1
tRp289
(I3
S'|'
NNNI17
I1
I0
tbS'The Emperor Falls'
tRp290
aa(lp291
F0.45278947675222264
aF484.62322
aF28.172000000000001
aF-15.335000000000001
aF480.363
aaa(lp292
(lp293
g4
(g5
(S'S18'
I0
I1
tRp294
(I3
S'|'
NNNI18
I1
I0
tbS'SOYTPEP12AB0180E7B'
tRp295
ag4
(g5
(S'S15'
I0
I1
tRp296
(I3
S'|'
NNNI15
I1
I0
tbS'The Shangri-Las'
tRp297
ag4
(g5
(S'S15'
I0
I1
tRp298
(I3
S'|'
NNNI15
I1
I0
tbS'Twist and Shout'
tRp299
aa(lp300
F0.41821651819493683
aF164.80608000000001
aF0
aF-10.922000000000001
aF156.17699999999999
aaa(lp301
(lp302
g4
(g5
(S'S18'
I0
I1
tRp303
(I3
S'|'
NNNI18
I1
I0
tbS'SOGXHEG12AB018653E'
tRp304
ag4
(g5
(S'S16'
I0
I1
tRp305
(I3
S'|'
NNNI16
I1
I0
tbS'Billie Jo Spears'
tRp306
ag4
(g5
(S'S26'
I0
I1
tRp307
(I3
S'|'
NNNI26
I1
I0
tbS'It Makes No Difference Now'
tRp308
aa(lp309
F0.38461108396163651
aF133.32853
aF0
aF-9.9830000000000005
aF130.00899999999999
aaa(lp310
(lp311
g4
(g5
(S'S18'
I0
I1
tRp312
(I3
S'|'
NNNI18
I1
I0
tbS'SOOLYAZ12A6701F4A6'
tRp313
ag4
(g5
(S'S44'
I0
I1
tRp314
(I3
S'|'
NNNI44
I1
I0
tbS"Mike Jones (Featuring CJ_ Mello & Lil' Bran)"
tRp315
ag4
(g5
(S'S31'
I0
I1
tRp316
(I3
S'|'
NNNI31
I1
I0
tbS'Laws Patrolling (Album Version)'
tRp317
aa(lp318
F0.42631795640769016
aF173.66158999999999
aF0
aF-7.7619999999999996
aF164.90799999999999
aaa(lp319
(lp320
g4
(g5
(S'S18'
I0
I1
tRp321
(I3
S'|'
NNNI18
I1
I0
tbS'SOGOSOV12AF72A285E'
tRp322
ag4
(g5
(S'S14'
I0
I1
tRp323
(I3
S'|'
NNNI14
I1
I0
tbS'Sierra Maestra'
tRp324
ag4
(g5
(S'S19'
I0
I1
tRp325
(I3
S'|'
NNNI19
I1
I0
tbS'\xc2\xbfD\xc3\xb3nde va Chichi?'
tRp326
aa(lp327
F0.39273367554668775
aF313.12934000000001
aF0
aF-9.5120000000000005
aF307.68799999999999
aaa(lp328
(lp329
g4
(g5
(S'S18'
I0
I1
tRp330
(I3
S'|'
NNNI18
I1
I0
tbS'SOJXVAH12A8C139700'
tRp331
ag4
(g5
(S'S16'
I0
I1
tRp332
(I3
S'|'
NNNI16
I1
I0
tbS'Butthole Surfers'
tRp333
ag4
(g5
(S'S29'
I0
I1
tRp334
(I3
S'|'
NNNI29
I1
I0
tbS'Barking Dogs (From "Piouhgd")'
tRp335
aa(lp336
F0.48801984168567314
aF450.84688999999997
aF0.46700000000000003
aF-9.0630000000000006
aF426.10399999999998
aaa(lp337
(lp338
g4
(g5
(S'S18'
I0
I1
tRp339
(I3
S'|'
NNNI18
I1
I0
tbS'SOVXMTN12A8C135A18'
tRp340
ag4
(g5
(S'S13'
I0
I1
tRp341
(I3
S'|'
NNNI13
I1
I0
tbS'Despina Vandi'
tRp342
ag4
(g5
(S'S18'
I0
I1
tRp343
(I3
S'|'
NNNI18
I1
I0
tbS'OUTE ENA EFHARISTO'
tRp344
aa(lp345
F0.41168895978577885
aF303.09832
aF0.067000000000000004
aF-8.8789999999999996
aF294.81799999999998
aaa(lp346
(lp347
g4
(g5
(S'S18'
I0
I1
tRp348
(I3
S'|'
NNNI18
I1
I0
tbS'SORSECL12AB0182267'
tRp349
ag4
(g5
(S'S16'
I0
I1
tRp350
(I3
S'|'
NNNI16
I1
I0
tbS'Javier Navarrete'
tRp351
ag4
(g5
(S'S13'
I0
I1
tRp352
(I3
S'|'
NNNI13
I1
I0
tbS'Midnight Swim'
tRp353
aa(lp354
F0.38265197113973687
aF128.83546000000001
aF0
aF-17.699000000000002
aF121.423
aaa(lp355
(lp356
g4
(g5
(S'S18'
I0
I1
tRp357
(I3
S'|'
NNNI18
I1
I0
tbS'SOOGFBZ12AC3DF7FF2'
tRp358
ag4
(g5
(S'S11'
I0
I1
tRp359
(I3
S'|'
NNNI11
I1
I0
tbS'Jacob Young'
tRp360
ag4
(g5
(S'S15'
I0
I1
tRp361
(I3
S'|'
NNNI15
I1
I0
tbS'In A Subtle Way'
tRp362
aa(lp363
F0.29486126188738199
aF456.30649
aF0.24099999999999999
aF-19.478000000000002
aF451.315
aaa(lp364
(lp365
g4
(g5
(S'S18'
I0
I1
tRp366
(I3
S'|'
NNNI18
I1
I0
tbS'SOMSBGZ12AB018C4CB'
tRp367
ag4
(g5
(S'S17'
I0
I1
tRp368
(I3
S'|'
NNNI17
I1
I0
tbS"Scarlet's Remains"
tRp369
ag4
(g5
(S'S4'
I0
I1
tRp370
(I3
S'|'
NNNI4
I1
I0
tbS'Spin'
tRp371
aa(lp372
F0.39312193357100678
aF198.73913999999999
aF0
aF-7.4690000000000003
aF193.01599999999999
aaa(lp373
(lp374
g4
(g5
(S'S18'
I0
I1
tRp375
(I3
S'|'
NNNI18
I1
I0
tbS'SONYRZV12AB018AF70'
tRp376
ag4
(g5
(S'S20'
I0
I1
tRp377
(I3
S'|'
NNNI20
I1
I0
tbS'The Suicide Machines'
tRp378
ag4
(g5
(S'S24'
I0
I1
tRp379
(I3
S'|'
NNNI24
I1
I0
tbS'Burning In The Aftermath'
tRp380
aa(lp381
F0.4675384440100101
aF95.686080000000004
aF0
aF-2.0219999999999998
aF87.805999999999997
aaa(lp382
(lp383
g4
(g5
(S'S18'
I0
I1
tRp384
(I3
S'|'
NNNI18
I1
I0
tbS'SONQBUB12A6D4F8ED0'
tRp385
ag4
(g5
(S'S18'
I0
I1
tRp386
(I3
S'|'
NNNI18
I1
I0
tbS'The Rolling Stones'
tRp387
ag4
(g5
(S'S29'
I0
I1
tRp388
(I3
S'|'
NNNI29
I1
I0
tbS'Angie (1993 Digital Remaster)'
tRp389
aa(lp390
F0.73576569295064143
aF271.49016
aF0.17100000000000001
aF-10.358000000000001
aF263.78399999999999
aaa(lp391
(lp392
g4
(g5
(S'S18'
I0
I1
tRp393
(I3
S'|'
NNNI18
I1
I0
tbS'SOHGKJW12AC468A8BD'
tRp394
ag4
(g5
(S'S14'
I0
I1
tRp395
(I3
S'|'
NNNI14
I1
I0
tbS'Roberto Torres'
tRp396
ag4
(g5
(S'S13'
I0
I1
tRp397
(I3
S'|'
NNNI13
I1
I0
tbS'Sabor Guajiro'
tRp398
aa(lp399
F0.35007857898947331
aF226.66404
aF0.311
aF-12.715999999999999
aF219.50999999999999
aaa(lp400
(lp401
g4
(g5
(S'S18'
I0
I1
tRp402
(I3
S'|'
NNNI18
I1
I0
tbS'SOINBCU12A6D4F94C0'
tRp403
ag4
(g5
(S'S21'
I0
I1
tRp404
(I3
S'|'
NNNI21
I1
I0
tbS'Loudon Wainwright III'
tRp405
ag4
(g5
(S'S16'
I0
I1
tRp406
(I3
S'|'
NNNI16
I1
I0
tbS'Human Cannonball'
tRp407
aa(lp408
F0.44276584202895042
aF190.48444000000001
aF0.25800000000000001
aF-15.663
aF177.029
aaa(lp409
(lp410
g4
(g5
(S'S18'
I0
I1
tRp411
(I3
S'|'
NNNI18
I1
I0
tbS'SOTWVQT12A58A79650'
tRp412
ag4
(g5
(S'S13'
I0
I1
tRp413
(I3
S'|'
NNNI13
I1
I0
tbS'R.L. Burnside'
tRp414
ag4
(g5
(S'S8'
I0
I1
tRp415
(I3
S'|'
NNNI8
I1
I0
tbS'Glory Be'
tRp416
aa(lp417
F0.46662888890168458
aF277.78566999999998
aF0.23999999999999999
aF-6.944
aF267.45299999999997
aaa(lp418
(lp419
g4
(g5
(S'S18'
I0
I1
tRp420
(I3
S'|'
NNNI18
I1
I0
tbS'SOTSEJY12AB0180F56'
tRp421
ag4
(g5
(S'S18'
I0
I1
tRp422
(I3
S'|'
NNNI18
I1
I0
tbS'Stevie Ray Vaughan'
tRp423
ag4
(g5
(S'S9'
I0
I1
tRp424
(I3
S'|'
NNNI9
I1
I0
tbS'Crossfire'
tRp425
aa(lp426
F0.54425750572452603
aF248.78975
aF0.183
aF-7.8049999999999997
aF246.19
aaa(lp427
(lp428
g4
(g5
(S'S18'
I0
I1
tRp429
(I3
S'|'
NNNI18
I1
I0
tbS'SOTSETT12AB01863B8'
tRp430
ag4
(g5
(S'S12'
I0
I1
tRp431
(I3
S'|'
NNNI12
I1
I0
tbS'John Hammond'
tRp432
ag4
(g5
(S'S20'
I0
I1
tRp433
(I3
S'|'
NNNI20
I1
I0
tbS"I Can't Be Satisfied"
tRp434
aa(lp435
F0.45281783769711387
aF195.31710000000001
aF0
aF-10.699999999999999
aF187.61699999999999
aaa(lp436
(lp437
g4
(g5
(S'S18'
I0
I1
tRp438
(I3
S'|'
NNNI18
I1
I0
tbS'SOTUNMH12A6D4FA3E6'
tRp439
ag4
(g5
(S'S33'
I0
I1
tRp440
(I3
S'|'
NNNI33
I1
I0
tbS'Casiotone For The Painfully Alone'
tRp441
ag4
(g5
(S'S19'
I0
I1
tRp442
(I3
S'|'
NNNI19
I1
I0
tbS'Nashville Parthenon'
tRp443
aa(lp444
F0.39421719890100421
aF175.72525999999999
aF0.73399999999999999
aF-10.93
aF168.69900000000001
aaa(lp445
(lp446
g4
(g5
(S'S18'
I0
I1
tRp447
(I3
S'|'
NNNI18
I1
I0
tbS'SOEPPKB12AB018418B'
tRp448
ag4
(g5
(S'S5'
I0
I1
tRp449
(I3
S'|'
NNNI5
I1
I0
tbS'Ec8or'
tRp450
ag4
(g5
(S'S12'
I0
I1
tRp451
(I3
S'|'
NNNI12
I1
I0
tbS'Cocain Ducks'
tRp452
aa(lp453
F0.33457736011909872
aF217.23383000000001
aF1.042
aF-9.4930000000000003
aF213.49600000000001
aaa(lp454
(lp455
g4
(g5
(S'S18'
I0
I1
tRp456
(I3
S'|'
NNNI18
I1
I0
tbS'SOGKIWV12A6D4F86C4'
tRp457
ag4
(g5
(S'S18'
I0
I1
tRp458
(I3
S'|'
NNNI18
I1
I0
tbS'The New York Dolls'
tRp459
ag4
(g5
(S'S11'
I0
I1
tRp460
(I3
S'|'
NNNI11
I1
I0
tbS'Human Being'
tRp461
aa(lp462
F0.47930845933822741
aF344.05831999999998
aF0.068000000000000005
aF-9.2530000000000001
aF335.029
aaa(lp463
(lp464
g4
(g5
(S'S18'
I0
I1
tRp465
(I3
S'|'
NNNI18
I1
I0
tbS'SOPHYIS12AAF3B35A3'
tRp466
ag4
(g5
(S'S12'
I0
I1
tRp467
(I3
S'|'
NNNI12
I1
I0
tbS'Eliane Elias'
tRp468
ag4
(g5
(S'S18'
I0
I1
tRp469
(I3
S'|'
NNNI18
I1
I0
tbS'The More I See You'
tRp470
aa(lp471
F0.42791424698295477
aF251.42812000000001
aF0.070999999999999994
aF-12.009
aF237.59800000000001
aaa(lp472
(lp473
g4
(g5
(S'S18'
I0
I1
tRp474
(I3
S'|'
NNNI18
I1
I0
tbS'SOFHBAR12A6701D0FE'
tRp475
ag4
(g5
(S'S9'
I0
I1
tRp476
(I3
S'|'
NNNI9
I1
I0
tbS'Lost Boyz'
tRp477
ag4
(g5
(S'S20'
I0
I1
tRp478
(I3
S'|'
NNNI20
I1
I0
tbS'Certain Things We Do'
tRp479
aa(lp480
F0.41224060053560735
aF269.79219999999998
aF0.218
aF-11.042999999999999
aF257.416
aaa(lp481
(lp482
g4
(g5
(S'S18'
I0
I1
tRp483
(I3
S'|'
NNNI18
I1
I0
tbS'SOCPRKM12AB018A2FD'
tRp484
ag4
(g5
(S'S9'
I0
I1
tRp485
(I3
S'|'
NNNI9
I1
I0
tbS'The Germs'
tRp486
ag4
(g5
(S'S7'
I0
I1
tRp487
(I3
S'|'
NNNI7
I1
I0
tbS'Forming'
tRp488
aa(lp489
F0.40439264015477133
aF206.05341999999999
aF0
aF-11.506
aF206.053
aaa(lp490
(lp491
g4
(g5
(S'S18'
I0
I1
tRp492
(I3
S'|'
NNNI18
I1
I0
tbS'SOFGHAM12AB0186412'
tRp493
ag4
(g5
(S'S13'
I0
I1
tRp494
(I3
S'|'
NNNI13
I1
I0
tbS'Yamandu Costa'
tRp495
ag4
(g5
(S'S6'
I0
I1
tRp496
(I3
S'|'
NNNI6
I1
I0
tbS'Mafu\xc3\xa1'
tRp497
aa(lp498
F0.38347574490669173
aF190.04035999999999
aF0
aF-14.179
aF176.92400000000001
aaa(lp499
(lp500
g4
(g5
(S'S18'
I0
I1
tRp501
(I3
S'|'
NNNI18
I1
I0
tbS'SODHVES12A6701CE6B'
tRp502
ag4
(g5
(S'S9'
I0
I1
tRp503
(I3
S'|'
NNNI9
I1
I0
tbS'Chris Rea'
tRp504
ag4
(g5
(S'S26'
I0
I1
tRp505
(I3
S'|'
NNNI26
I1
I0
tbS'Driving Home For Christmas'
tRp506
aa(lp507
F0.50069134091345302
aF241.16200000000001
aF0.54900000000000004
aF-8.5310000000000006
aF230.34200000000001
aaa(lp508
(lp509
g4
(g5
(S'S18'
I0
I1
tRp510
(I3
S'|'
NNNI18
I1
I0
tbS'SOXIATP12AAF3B2184'
tRp511
ag4
(g5
(S'S19'
I0
I1
tRp512
(I3
S'|'
NNNI19
I1
I0
tbS'Perrey And Kingsley'
tRp513
ag4
(g5
(S'S15'
I0
I1
tRp514
(I3
S'|'
NNNI15
I1
I0
tbS'Spooks In Space'
tRp515
aa(lp516
F0.3384148184832545
aF122.64444
aF0.98999999999999999
aF-8.5410000000000004
aF109.627
aaa(lp517
(lp518
g4
(g5
(S'S18'
I0
I1
tRp519
(I3
S'|'
NNNI18
I1
I0
tbS'SOGNQWU12A8AE4868F'
tRp520
ag4
(g5
(S'S10'
I0
I1
tRp521
(I3
S'|'
NNNI10
I1
I0
tbS'Eurythmics'
tRp522
ag4
(g5
(S'S31'
I0
I1
tRp523
(I3
S'|'
NNNI31
I1
I0
tbS'Tous Les Gar\xc3\xa7ons Et Les Filles'
tRp524
aa(lp525
F0.52369907776539082
aF207.07220000000001
aF2.5830000000000002
aF-6.6289999999999996
aF202.75700000000001
aaa(lp526
(lp527
g4
(g5
(S'S18'
I0
I1
tRp528
(I3
S'|'
NNNI18
I1
I0
tbS'SOYQOFI12A6D4F76E1'
tRp529
ag4
(g5
(S'S15'
I0
I1
tRp530
(I3
S'|'
NNNI15
I1
I0
tbS'Francis Dunnery'
tRp531
ag4
(g5
(S'S15'
I0
I1
tRp532
(I3
S'|'
NNNI15
I1
I0
tbS'Too Much Saturn'
tRp533
aa(lp534
F0.38352424732772722
aF300.79955000000001
aF0
aF-13.33
aF298.34699999999998
aaa(lp535
(lp536
g4
(g5
(S'S18'
I0
I1
tRp537
(I3
S'|'
NNNI18
I1
I0
tbS'SOVOLGY12A6D4F822B'
tRp538
ag4
(g5
(S'S9'
I0
I1
tRp539
(I3
S'|'
NNNI9
I1
I0
tbS'John Cale'
tRp540
ag4
(g5
(S'S38'
I0
I1
tRp541
(I3
S'|'
NNNI38
I1
I0
tbS'Movement 4 [from Kiss] (Album Version)'
tRp542
aa(lp543
F0.48165586241245567
aF228.46648999999999
aF0
aF-12.412000000000001
aF228.46600000000001
aaa(lp544
(lp545
g4
(g5
(S'S18'
I0
I1
tRp546
(I3
S'|'
NNNI18
I1
I0
tbS'SOMZCVH12AB0182B8E'
tRp547
ag4
(g5
(S'S13'
I0
I1
tRp548
(I3
S'|'
NNNI13
I1
I0
tbS'Suzanne Ciani'
tRp549
ag4
(g5
(S'S6'
I0
I1
tRp550
(I3
S'|'
NNNI6
I1
I0
tbS'Stream'
tRp551
aa(lp552
F0.38070453582445729
aF239.59465
aF0.311
aF-21.552
aF236.50700000000001
aaa(lp553
(lp554
g4
(g5
(S'S18'
I0
I1
tRp555
(I3
S'|'
NNNI18
I1
I0
tbS'SONXJBL12AAF3B2C0C'
tRp556
ag4
(g5
(S'S13'
I0
I1
tRp557
(I3
S'|'
NNNI13
I1
I0
tbS'Vickie Winans'
tRp558
ag4
(g5
(S'S12'
I0
I1
tRp559
(I3
S'|'
NNNI12
I1
I0
tbS'Make Me Over'
tRp560
aa(lp561
F0.39685586932534861
aF228.93669
aF0.33800000000000002
aF-8.6859999999999999
aF219.57400000000001
aaa(lp562
(lp563
g4
(g5
(S'S18'
I0
I1
tRp564
(I3
S'|'
NNNI18
I1
I0
tbS'SOYWZTU12AB0180E26'
tRp565
ag4
(g5
(S'S13'
I0
I1
tRp566
(I3
S'|'
NNNI13
I1
I0
tbS'The Berzerker'
tRp567
ag4
(g5
(S'S13'
I0
I1
tRp568
(I3
S'|'
NNNI13
I1
I0
tbS'Deform (live)'
tRp569
aa(lp570
F0.45755390983649336
aF165.61587
aF2.1709999999999998
aF-6.2220000000000004
aF165.61600000000001
aaa(lp571
(lp572
g4
(g5
(S'S18'
I0
I1
tRp573
(I3
S'|'
NNNI18
I1
I0
tbS'SOLGHDZ12AB0183B11'
tRp574
ag4
(g5
(S'S13'
I0
I1
tRp575
(I3
S'|'
NNNI13
I1
I0
tbS'Kings Of Leon'
tRp576
ag4
(g5
(S'S12'
I0
I1
tRp577
(I3
S'|'
NNNI12
I1
I0
tbS'Wicker Chair'
tRp578
aa(lp579
F0.78880593516201425
aF187.92444
aF0.32800000000000001
aF-5.907
aF180.34399999999999
aaa(lp580
(lp581
g4
(g5
(S'S18'
I0
I1
tRp582
(I3
S'|'
NNNI18
I1
I0
tbS'SOTNTNJ12AAA15FBD6'
tRp583
ag4
(g5
(S'S11'
I0
I1
tRp584
(I3
S'|'
NNNI11
I1
I0
tbS'Edith Lefel'
tRp585
ag4
(g5
(S'S12'
I0
I1
tRp586
(I3
S'|'
NNNI12
I1
I0
tbS"An ti chans'"
tRp587
aa(lp588
F0.30004649036641506
aF276.50567000000001
aF0.29899999999999999
aF-4.6379999999999999
aF261.95600000000002
aaa(lp589
(lp590
g4
(g5
(S'S18'
I0
I1
tRp591
(I3
S'|'
NNNI18
I1
I0
tbS'SOXZXXV12AAF3B3A67'
tRp592
ag4
(g5
(S'S5'
I0
I1
tRp593
(I3
S'|'
NNNI5
I1
I0
tbS'Taras'
tRp594
ag4
(g5
(S'S35'
I0
I1
tRp595
(I3
S'|'
NNNI35
I1
I0
tbS"I Will Love Again (JJ's Club Radio)"
tRp596
aa(lp597
F0.18931487775261457
aF200.25424000000001
aF0
aF-5.8840000000000003
aF194.84399999999999
aaa(lp598
(lp599
g4
(g5
(S'S18'
I0
I1
tRp600
(I3
S'|'
NNNI18
I1
I0
tbS'SOPIKEG12A58291636'
tRp601
ag4
(g5
(S'S4'
I0
I1
tRp602
(I3
S'|'
NNNI4
I1
I0
tbS'NOFX'
tRp603
ag4
(g5
(S'S17'
I0
I1
tRp604
(I3
S'|'
NNNI17
I1
I0
tbS'Stickin In My Eye'
tRp605
aa(lp606
F0.55429148901281555
aF144.50892999999999
aF0.23699999999999999
aF-7.7869999999999999
aF140.05699999999999
aaa(lp607
(lp608
g4
(g5
(S'S18'
I0
I1
tRp609
(I3
S'|'
NNNI18
I1
I0
tbS'SOIRNBO12AC468D207'
tRp610
ag4
(g5
(S'S12'
I0
I1
tRp611
(I3
S'|'
NNNI12
I1
I0
tbS'Murskahumppa'
tRp612
ag4
(g5
(S'S10'
I0
I1
tRp613
(I3
S'|'
NNNI10
I1
I0
tbS'Ota kiinni'
tRp614
aa(lp615
F0.26803783963074496
aF285.17831999999999
aF0
aF-8.4879999999999995
aF275.85300000000001
aaa(lp616
(lp617
g4
(g5
(S'S18'
I0
I1
tRp618
(I3
S'|'
NNNI18
I1
I0
tbS'SOSBDSF12AB0189007'
tRp619
ag4
(g5
(S'S11'
I0
I1
tRp620
(I3
S'|'
NNNI11
I1
I0
tbS'Soda Stereo'
tRp621
ag4
(g5
(S'S16'
I0
I1
tRp622
(I3
S'|'
NNNI16
I1
I0
tbS'Entre Can\xc3\xadbales'
tRp623
aa(lp624
F0.46682699252718746
aF246.69995
aF0.32200000000000001
aF-9.6029999999999998
aF224.04900000000001
aaa(lp625
(lp626
g4
(g5
(S'S18'
I0
I1
tRp627
(I3
S'|'
NNNI18
I1
I0
tbS'SOIJXXM12A8C1416D6'
tRp628
ag4
(g5
(S'S13'
I0
I1
tRp629
(I3
S'|'
NNNI13
I1
I0
tbS'Bruce Rowland'
tRp630
ag4
(g5
(S'S16'
I0
I1
tRp631
(I3
S'|'
NNNI16
I1
I0
tbS'Rosemary Recalls'
tRp632
aa(lp633
F0.30045445981230767
aF84.03546
aF0.32800000000000001
aF-26.265999999999998
aF75.790000000000006
aaa(lp634
(lp635
g4
(g5
(S'S18'
I0
I1
tRp636
(I3
S'|'
NNNI18
I1
I0
tbS'SOHMMMC12AB0181C42'
tRp637
ag4
(g5
(S'S9'
I0
I1
tRp638
(I3
S'|'
NNNI9
I1
I0
tbS'Xcultures'
tRp639
ag4
(g5
(S'S14'
I0
I1
tRp640
(I3
S'|'
NNNI14
I1
I0
tbS'Sudanese Dance'
tRp641
aa(lp642
F0.26627528554651025
aF273.52771000000001
aF2.177
aF-6.3049999999999997
aF268.89299999999997
aaa(lp643
(lp644
g4
(g5
(S'S18'
I0
I1
tRp645
(I3
S'|'
NNNI18
I1
I0
tbS'SOVJXVJ12A8C13517D'
tRp646
ag4
(g5
(S'S11'
I0
I1
tRp647
(I3
S'|'
NNNI11
I1
I0
tbS'White Heart'
tRp648
ag4
(g5
(S'S55'
I0
I1
tRp649
(I3
S'|'
NNNI55
I1
I0
tbS'Where The Thunder Roars (Tales Of Wonder Album Version)'
tRp650
aa(lp651
F0.33750728916593725
aF298.84035999999998
aF19.093
aF-9.9979999999999993
aF289.45999999999998
aaa(lp652
(lp653
g4
(g5
(S'S18'
I0
I1
tRp654
(I3
S'|'
NNNI18
I1
I0
tbS'SOFZCTA12AB0188D8F'
tRp655
ag4
(g5
(S'S17'
I0
I1
tRp656
(I3
S'|'
NNNI17
I1
I0
tbS'Heavy D / McGruff'
tRp657
ag4
(g5
(S'S17'
I0
I1
tRp658
(I3
S'|'
NNNI17
I1
I0
tbS'Wanna Be A Player'
tRp659
aa(lp660
F0.36366811024462387
aF161.38404
aF0.16500000000000001
aF-9.1609999999999996
aF161.38399999999999
aaa(lp661
(lp662
g4
(g5
(S'S18'
I0
I1
tRp663
(I3
S'|'
NNNI18
I1
I0
tbS'SOLRYQR12A670215BF'
tRp664
ag4
(g5
(S'S9'
I0
I1
tRp665
(I3
S'|'
NNNI9
I1
I0
tbS'Van Halen'
tRp666
ag4
(g5
(S'S33'
I0
I1
tRp667
(I3
S'|'
NNNI33
I1
I0
tbS'Panama (Remastered Album Version)'
tRp668
aa(lp669
F0.57998898242875463
aF209.29261
aF0
aF-4.8650000000000002
aF206.62299999999999
aaa(lp670
(lp671
g4
(g5
(S'S18'
I0
I1
tRp672
(I3
S'|'
NNNI18
I1
I0
tbS'SOCHRXB12A8AE48069'
tRp673
ag4
(g5
(S'S15'
I0
I1
tRp674
(I3
S'|'
NNNI15
I1
I0
tbS'Black Eyed Peas'
tRp675
ag4
(g5
(S'S20'
I0
I1
tRp676
(I3
S'|'
NNNI20
I1
I0
tbS"Let's Get It Started"
tRp677
aa(lp678
F1.0059419659547393
aF229.61587
aF0
aF-4.8819999999999997
aF213.66399999999999
aaa(lp679
(lp680
g4
(g5
(S'S18'
I0
I1
tRp681
(I3
S'|'
NNNI18
I1
I0
tbS'SOKBBXO12A6701DEA0'
tRp682
ag4
(g5
(S'S15'
I0
I1
tRp683
(I3
S'|'
NNNI15
I1
I0
tbS'Nine Inch Nails'
tRp684
ag4
(g5
(S'S5'
I0
I1
tRp685
(I3
S'|'
NNNI5
I1
I0
tbS'Metal'
tRp686
aa(lp687
F0.59845850098244335
aF426.89260999999999
aF0.28599999999999998
aF-12.951000000000001
aF399.89999999999998
aaa(lp688
(lp689
g4
(g5
(S'S18'
I0
I1
tRp690
(I3
S'|'
NNNI18
I1
I0
tbS'SOWHYUG12A58A77FAB'
tRp691
ag4
(g5
(S'S25'
I0
I1
tRp692
(I3
S'|'
NNNI25
I1
I0
tbS'Nick Cave & The Bad Seeds'
tRp693
ag4
(g5
(S'S37'
I0
I1
tRp694
(I3
S'|'
NNNI37
I1
I0
tbS'She Fell Away (2009 Digital Remaster)'
tRp695
aa(lp696
F0.47940767557514763
aF269.26974999999999
aF3.8889999999999998
aF-11.750999999999999
aF262.798
aaa(lp697
(lp698
g4
(g5
(S'S18'
I0
I1
tRp699
(I3
S'|'
NNNI18
I1
I0
tbS'SOYSTDI12A6D4F6500'
tRp700
ag4
(g5
(S'S12'
I0
I1
tRp701
(I3
S'|'
NNNI12
I1
I0
tbS'Nadine Renee'
tRp702
ag4
(g5
(S'S9'
I0
I1
tRp703
(I3
S'|'
NNNI9
I1
I0
tbS'Next Time'
tRp704
aa(lp705
F0.13924739387110993
aF249.41668999999999
aF0.64700000000000002
aF-6.6929999999999996
aF238.434
aaa(lp706
(lp707
g4
(g5
(S'S18'
I0
I1
tRp708
(I3
S'|'
NNNI18
I1
I0
tbS'SOOOROX12A6D4F8400'
tRp709
ag4
(g5
(S'S11'
I0
I1
tRp710
(I3
S'|'
NNNI11
I1
I0
tbS'Lesley Gore'
tRp711
ag4
(g5
(S'S13'
I0
I1
tRp712
(I3
S'|'
NNNI13
I1
I0
tbS"It's My Party"
tRp713
aa(lp714
F0.3891007762801808
aF136.48934
aF0.22900000000000001
aF-9.0909999999999993
aF130.02600000000001
aaa(lp715
(lp716
g4
(g5
(S'S18'
I0
I1
tRp717
(I3
S'|'
NNNI18
I1
I0
tbS'SONSPZE12AB01819CE'
tRp718
ag4
(g5
(S'S9'
I0
I1
tRp719
(I3
S'|'
NNNI9
I1
I0
tbS'Smartbomb'
tRp720
ag4
(g5
(S'S13'
I0
I1
tRp721
(I3
S'|'
NNNI13
I1
I0
tbS'Complicate It'
tRp722
aa(lp723
F0.32248510566119731
aF233.27302
aF0.38600000000000001
aF-2.6579999999999999
aF231.178
aaa(lp724
(lp725
g4
(g5
(S'S18'
I0
I1
tRp726
(I3
S'|'
NNNI18
I1
I0
tbS'SOHWGFU12AB017B036'
tRp727
ag4
(g5
(S'S7'
I0
I1
tRp728
(I3
S'|'
NNNI7
I1
I0
tbS'Suburbs'
tRp729
ag4
(g5
(S'S12'
I0
I1
tRp730
(I3
S'|'
NNNI12
I1
I0
tbS'Monde De Fou'
tRp731
aa(lp732
F0.33565183918470087
aF187.24526
aF0.107
aF-4.4199999999999999
aF178.625
aaa(lp733
(lp734
g4
(g5
(S'S18'
I0
I1
tRp735
(I3
S'|'
NNNI18
I1
I0
tbS'SOQQVQJ12AB0185192'
tRp736
ag4
(g5
(S'S7'
I0
I1
tRp737
(I3
S'|'
NNNI7
I1
I0
tbS'Emperor'
tRp738
ag4
(g5
(S'S22'
I0
I1
tRp739
(I3
S'|'
NNNI22
I1
I0
tbS'Opus a Satana (Part 2)'
tRp740
aa(lp741
F0.45339118607533013
aF72.619950000000003
aF0
aF-11.051
aF68.364999999999995
aaa(lp742
(lp743
g4
(g5
(S'S18'
I0
I1
tRp744
(I3
S'|'
NNNI18
I1
I0
tbS'SODRHHD12AB0189F2A'
tRp745
ag4
(g5
(S'S12'
I0
I1
tRp746
(I3
S'|'
NNNI12
I1
I0
tbS'Julien Clerc'
tRp747
ag4
(g5
(S'S18'
I0
I1
tRp748
(I3
S'|'
NNNI18
I1
I0
tbS'This Melody (Live)'
tRp749
aa(lp750
F0.36438492446826576
aF272.63954999999999
aF2.7749999999999999
aF-9.9700000000000006
aF272.63999999999999
aaa(lp751
(lp752
g4
(g5
(S'S18'
I0
I1
tRp753
(I3
S'|'
NNNI18
I1
I0
tbS'SOQGFVO12A8C13C8C3'
tRp754
ag4
(g5
(S'S13'
I0
I1
tRp755
(I3
S'|'
NNNI13
I1
I0
tbS'Glen Campbell'
tRp756
ag4
(g5
(S'S18'
I0
I1
tRp757
(I3
S'|'
NNNI18
I1
I0
tbS"I'm Gone This Time"
tRp758
aa(lp759
F0.4810242392118726
aF142.75873000000001
aF0.218
aF-11.335000000000001
aF135.54599999999999
aaa(lp760
(lp761
g4
(g5
(S'S18'
I0
I1
tRp762
(I3
S'|'
NNNI18
I1
I0
tbS'SORABMD12A8C136672'
tRp763
ag4
(g5
(S'S13'
I0
I1
tRp764
(I3
S'|'
NNNI13
I1
I0
tbS'T.G. Sheppard'
tRp765
ag4
(g5
(S'S22'
I0
I1
tRp766
(I3
S'|'
NNNI22
I1
I0
tbS'You Feel Good All Over'
tRp767
aa(lp768
F0.34328188178708335
aF194.11546000000001
aF0.088999999999999996
aF-15.581
aF182.72900000000001
aaa(lp769
(lp770
g4
(g5
(S'S18'
I0
I1
tRp771
(I3
S'|'
NNNI18
I1
I0
tbS'SOTUBVH12AB018D2EC'
tRp772
ag4
(g5
(S'S12'
I0
I1
tRp773
(I3
S'|'
NNNI12
I1
I0
tbS'Slim Whitman'
tRp774
ag4
(g5
(S'S16'
I0
I1
tRp775
(I3
S'|'
NNNI16
I1
I0
tbS'Indian Love Call'
tRp776
aa(lp777
F0.38666909170602387
aF195.91791000000001
aF0.16500000000000001
aF-11.98
aF192.08699999999999
aaa(lp778
(lp779
g4
(g5
(S'S18'
I0
I1
tRp780
(I3
S'|'
NNNI18
I1
I0
tbS'SOMQAGT12A8C132DB4'
tRp781
ag4
(g5
(S'S13'
I0
I1
tRp782
(I3
S'|'
NNNI13
I1
I0
tbS'Savage Garden'
tRp783
ag4
(g5
(S'S21'
I0
I1
tRp784
(I3
S'|'
NNNI21
I1
I0
tbS'You Can Still Be Free'
tRp785
aa(lp786
F0.53807029512378279
aF118.33423999999999
aF0
aF-11.215
aF118.334
aaa(lp787
(lp788
g4
(g5
(S'S18'
I0
I1
tRp789
(I3
S'|'
NNNI18
I1
I0
tbS'SOKLLOH12A67020F2C'
tRp790
ag4
(g5
(S'S23'
I0
I1
tRp791
(I3
S'|'
NNNI23
I1
I0
tbS'Queens Of The Stone Age'
tRp792
ag4
(g5
(S'S12'
I0
I1
tRp793
(I3
S'|'
NNNI12
I1
I0
tbS'I Never Came'
tRp794
aa(lp795
F0.55241334551694454
aF288.41750999999999
aF0.113
aF-8.1649999999999991
aF279.17899999999997
aaa(lp796
(lp797
g4
(g5
(S'S18'
I0
I1
tRp798
(I3
S'|'
NNNI18
I1
I0
tbS'SONRLQH12AB017C232'
tRp799
ag4
(g5
(S'S40'
I0
I1
tRp800
(I3
S'|'
NNNI40
I1
I0
tbS'Hank Penny & The Lincoln Penny Orchestra'
tRp801
ag4
(g5
(S'S5'
I0
I1
tRp802
(I3
S'|'
NNNI5
I1
I0
tbS'Dixie'
tRp803
aa(lp804
F0.34759888868353678
aF123.21914
aF1.0009999999999999
aF-12.69
aF118.07899999999999
aaa(lp805
(lp806
g4
(g5
(S'S18'
I0
I1
tRp807
(I3
S'|'
NNNI18
I1
I0
tbS'SODDZAD12A6701DC4C'
tRp808
ag4
(g5
(S'S16'
I0
I1
tRp809
(I3
S'|'
NNNI16
I1
I0
tbS'Inspiral Carpets'
tRp810
ag4
(g5
(S'S16'
I0
I1
tRp811
(I3
S'|'
NNNI16
I1
I0
tbS'Commercial Reign'
tRp812
aa(lp813
F0.39854753538058046
aF283.76771000000002
aF0
aF-8.6999999999999993
aF271.82999999999998
aaa(lp814
(lp815
g4
(g5
(S'S18'
I0
I1
tRp816
(I3
S'|'
NNNI18
I1
I0
tbS'SORENXV12A6701F61F'
tRp817
ag4
(g5
(S'S8'
I0
I1
tRp818
(I3
S'|'
NNNI8
I1
I0
tbS'Borialis'
tRp819
ag4
(g5
(S'S9'
I0
I1
tRp820
(I3
S'|'
NNNI9
I1
I0
tbS'Hourglass'
tRp821
aa(lp822
F0.42141510254240711
aF239.3073
aF0.182
aF-5.758
aF220.26400000000001
aaa(lp823
(lp824
g4
(g5
(S'S18'
I0
I1
tRp825
(I3
S'|'
NNNI18
I1
I0
tbS'SOYMMDY12AB01825B2'
tRp826
ag4
(g5
(S'S16'
I0
I1
tRp827
(I3
S'|'
NNNI16
I1
I0
tbS'The Dirty Skirts'
tRp828
ag4
(g5
(S'S4'
I0
I1
tRp829
(I3
S'|'
NNNI4
I1
I0
tbS'Wake'
tRp830
aa(lp831
F0.40418220665370436
aF206.75873000000001
aF0.096000000000000002
aF-4.907
aF193.11500000000001
aaa(lp832
(lp833
g4
(g5
(S'S18'
I0
I1
tRp834
(I3
S'|'
NNNI18
I1
I0
tbS'SOJWQIP12A6D4F710A'
tRp835
ag4
(g5
(S'S14'
I0
I1
tRp836
(I3
S'|'
NNNI14
I1
I0
tbS'Flor Silvestre'
tRp837
ag4
(g5
(S'S16'
I0
I1
tRp838
(I3
S'|'
NNNI16
I1
I0
tbS'Caricia Y Herida'
tRp839
aa(lp840
F0.31356934268380171
aF134.81751
aF0
aF-8.1329999999999991
aF130.72300000000001
aaa(lp841
(lp842
g4
(g5
(S'S18'
I0
I1
tRp843
(I3
S'|'
NNNI18
I1
I0
tbS'SOOVOKS12AB017EE57'
tRp844
ag4
(g5
(S'S5'
I0
I1
tRp845
(I3
S'|'
NNNI5
I1
I0
tbS'B\xc3\xa9zu'
tRp846
ag4
(g5
(S'S13'
I0
I1
tRp847
(I3
S'|'
NNNI13
I1
I0
tbS'Le tortillard'
tRp848
aa(lp849
F0.14898548099227371
aF285.64852999999999
aF0.39700000000000002
aF-9.093
aF274.72699999999998
aaa(lp850
(lp851
g4
(g5
(S'S18'
I0
I1
tRp852
(I3
S'|'
NNNI18
I1
I0
tbS'SORWHWY12A6702038E'
tRp853
ag4
(g5
(S'S6'
I0
I1
tRp854
(I3
S'|'
NNNI6
I1
I0
tbS'Redman'
tRp855
ag4
(g5
(S'S11'
I0
I1
tRp856
(I3
S'|'
NNNI11
I1
I0
tbS'WKYA (drop)'
tRp857
aa(lp858
F0.49356684269655965
aF124.18567
aF0
aF-10.295999999999999
aF121.005
aaa(lp859
(lp860
g4
(g5
(S'S18'
I0
I1
tRp861
(I3
S'|'
NNNI18
I1
I0
tbS'SOGYYLE12A8C13E5EA'
tRp862
ag4
(g5
(S'S18'
I0
I1
tRp863
(I3
S'|'
NNNI18
I1
I0
tbS'Solistiyhtye Suomi'
tRp864
ag4
(g5
(S'S11'
I0
I1
tRp865
(I3
S'|'
NNNI11
I1
I0
tbS'Ter\xc3\xa4slintu'
tRp866
aa(lp867
F0.31781095981227042
aF134.08608000000001
aF4.4409999999999998
aF-12.839
aF130.38
aaa(lp868
(lp869
g4
(g5
(S'S18'
I0
I1
tRp870
(I3
S'|'
NNNI18
I1
I0
tbS'SOITUXQ12AB0183AE9'
tRp871
ag4
(g5
(S'S12'
I0
I1
tRp872
(I3
S'|'
NNNI12
I1
I0
tbS'Eddie Cantor'
tRp873
ag4
(g5
(S'S30'
I0
I1
tRp874
(I3
S'|'
NNNI30
I1
I0
tbS"Now's The Time To Fall In Love"
tRp875
aa(lp876
F0.33109012633891616
aF155.61098000000001
aF0.154
aF-13.710000000000001
aF150.75
aaa(lp877
(lp878
g4
(g5
(S'S18'
I0
I1
tRp879
(I3
S'|'
NNNI18
I1
I0
tbS'SOTWEZZ12A8C142B60'
tRp880
ag4
(g5
(S'S8'
I0
I1
tRp881
(I3
S'|'
NNNI8
I1
I0
tbS'Schizoid'
tRp882
ag4
(g5
(S'S49'
I0
I1
tRp883
(I3
S'|'
NNNI49
I1
I0
tbS'Grim Prospects (Gross Prospects - Bad Trip Remix)'
tRp884
aa(lp885
F0.34919221761645924
aF275.40852999999998
aF0
aF-2.1190000000000002
aF272.55599999999998
aaa(lp886
(lp887
g4
(g5
(S'S18'
I0
I1
tRp888
(I3
S'|'
NNNI18
I1
I0
tbS'SOUVRGZ12A58A77F90'
tRp889
ag4
(g5
(S'S11'
I0
I1
tRp890
(I3
S'|'
NNNI11
I1
I0
tbS'Kai Winding'
tRp891
ag4
(g5
(S'S6'
I0
I1
tRp892
(I3
S'|'
NNNI6
I1
I0
tbS'Mangos'
tRp893
aa(lp894
F0.31635400082229742
aF223.47710000000001
aF0.29099999999999998
aF-14.438000000000001
aF220.02600000000001
aaa(lp895
(lp896
g4
(g5
(S'S18'
I0
I1
tRp897
(I3
S'|'
NNNI18
I1
I0
tbS'SOBLTSM12A6D4F9EEA'
tRp898
ag4
(g5
(S'S13'
I0
I1
tRp899
(I3
S'|'
NNNI13
I1
I0
tbS'Sonny Simmons'
tRp900
ag4
(g5
(S'S15'
I0
I1
tRp901
(I3
S'|'
NNNI15
I1
I0
tbS'A Distant Voice'
tRp902
aa(lp903
F0.31783387920026202
aF443.24525999999997
aF0.23000000000000001
aF-13.002000000000001
aF430.73599999999999
aaa(lp904
(lp905
g4
(g5
(S'S18'
I0
I1
tRp906
(I3
S'|'
NNNI18
I1
I0
tbS'SOMZWCG12A8C13C480'
tRp907
ag4
(g5
(S'S6'
I0
I1
tRp908
(I3
S'|'
NNNI6
I1
I0
tbS'Casual'
tRp909
ag4
(g5
(S'S16'
I0
I1
tRp910
(I3
S'|'
NNNI16
I1
I0
tbS"I Didn't Mean To"
tRp911
aa(lp912
F0.40199754336428362
aF218.93179000000001
aF0.247
aF1
aF-11.196999999999999
aF218.93199999999999
aaa(lp913
(lp914
g4
(g5
(S'S18'
I0
I1
tRp915
(I3
S'|'
NNNI18
I1
I0
tbS'SOCIWDW12A8C13D406'
tRp916
ag4
(g5
(S'S12'
I0
I1
tRp917
(I3
S'|'
NNNI12
I1
I0
tbS'The Box Tops'
tRp918
ag4
(g5
(S'S9'
I0
I1
tRp919
(I3
S'|'
NNNI9
I1
I0
tbS'Soul Deep'
tRp920
aa(lp921
F0.41749964497097841
aF148.03546
aF0.14799999999999999
aF6
aF-9.843
aF137.91499999999999
aaa(lp922
(lp923
g4
(g5
(S'S18'
I0
I1
tRp924
(I3
S'|'
NNNI18
I1
I0
tbS'SOXVLOJ12AB0189215'
tRp925
ag4
(g5
(S'S16'
I0
I1
tRp926
(I3
S'|'
NNNI16
I1
I0
tbS'Sonora Santanera'
tRp927
ag4
(g5
(S'S15'
I0
I1
tRp928
(I3
S'|'
NNNI15
I1
I0
tbS'Amor De Cabaret'
tRp929
aa(lp930
F0.34342837829688244
aF177.47546
aF0.28199999999999997
aF8
aF-9.6890000000000001
aF172.304
aaa(lp931
(lp932
g4
(g5
(S'S18'
I0
I1
tRp933
(I3
S'|'
NNNI18
I1
I0
tbS'SONHOTT12A8C13493C'
tRp934
ag4
(g5
(S'S8'
I0
I1
tRp935
(I3
S'|'
NNNI8
I1
I0
tbS'Adam Ant'
tRp936
ag4
(g5
(S'S15'
I0
I1
tRp937
(I3
S'|'
NNNI15
I1
I0
tbS'Something Girls'
tRp938
aa(lp939
F0.45423115657062052
aF233.40362999999999
aF0
aF0
aF-9.0129999999999999
aF217.124
aaa(lp940
(lp941
g4
(g5
(S'S18'
I0
I1
tRp942
(I3
S'|'
NNNI18
I1
I0
tbS'SOFSOCN12A8C143F5D'
tRp943
ag4
(g5
(S'S3'
I0
I1
tRp944
(I3
S'|'
NNNI3
I1
I0
tbS'Gob'
tRp945
ag4
(g5
(S'S14'
I0
I1
tRp946
(I3
S'|'
NNNI14
I1
I0
tbS'Face the Ashes'
tRp947
aa(lp948
F0.40172368550367865
aF209.60607999999999
aF0.066000000000000003
aF2
aF-4.5010000000000003
aF198.69900000000001
aaa(lp949
(lp950
g4
(g5
(S'S18'
I0
I1
tRp951
(I3
S'|'
NNNI18
I1
I0
tbS'SOYMRWW12A6D4FAB14'
tRp952
ag4
(g5
(S'S21'
I0
I1
tRp953
(I3
S'|'
NNNI21
I1
I0
tbS'Jeff And Sheri Easter'
tRp954
ag4
(g5
(S'S43'
I0
I1
tRp955
(I3
S'|'
NNNI43
I1
I0
tbS'The Moon And I (Ordinary Day Album Version)'
tRp956
aa(lp957
F0.38547055055582102
aF267.70240000000001
aF2.2639999999999998
aF5
aF-9.3230000000000004
aF254.27000000000001
aaa(lp958
(lp959
g4
(g5
(S'S18'
I0
I1
tRp960
(I3
S'|'
NNNI18
I1
I0
tbS'SOMJBYD12A6D4F8557'
tRp961
ag4
(g5
(S'S7'
I0
I1
tRp962
(I3
S'|'
NNNI7
I1
I0
tbS'Rated R'
tRp963
ag4
(g5
(S'S21'
I0
I1
tRp964
(I3
S'|'
NNNI21
I1
I0
tbS'Keepin It Real (Skit)'
tRp965
aa(lp966
F0.26194117738084738
aF114.78158999999999
aF0.096000000000000002
aF1
aF-17.302
aF114.782
aaa(lp967
(lp968
g4
(g5
(S'S18'
I0
I1
tRp969
(I3
S'|'
NNNI18
I1
I0
tbS'SOHKNRJ12A6701D1F8'
tRp970
ag4
(g5
(S'S21'
I0
I1
tRp971
(I3
S'|'
NNNI21
I1
I0
tbS'Tweeterfriendly Music'
tRp972
ag4
(g5
(S'S12'
I0
I1
tRp973
(I3
S'|'
NNNI12
I1
I0
tbS'Drop of Rain'
tRp974
aa(lp975
F0.60550713569057524
aF189.57015999999999
aF0.31900000000000001
aF4
aF-11.641999999999999
aF181.023
aaa(lp976
(lp977
g4
(g5
(S'S18'
I0
I1
tRp978
(I3
S'|'
NNNI18
I1
I0
tbS'SOIAZJW12AB01853F1'
tRp979
ag4
(g5
(S'S16'
I0
I1
tRp980
(I3
S'|'
NNNI16
I1
I0
tbS'Planet P Project'
tRp981
ag4
(g5
(S'S10'
I0
I1
tRp982
(I3
S'|'
NNNI10
I1
I0
tbS'Pink World'
tRp983
aa(lp984
F0.33227574659906806
aF269.81832000000003
aF5.2999999999999998
aF4
aF-13.496
aF258.99000000000001
aaa(lp985
(lp986
g4
(g5
(S'S18'
I0
I1
tRp987
(I3
S'|'
NNNI18
I1
I0
tbS'SOUDSGM12AC9618304'
tRp988
ag4
(g5
(S'S3'
I0
I1
tRp989
(I3
S'|'
NNNI3
I1
I0
tbS'Clp'
tRp990
ag4
(g5
(S'S33'
I0
I1
tRp991
(I3
S'|'
NNNI33
I1
I0
tbS'Insatiable (Instrumental Version)'
tRp992
aa(lp993
F0.42270564102939107
aF266.39627999999999
aF0.084000000000000005
aF7
aF-6.6970000000000001
aF261.74700000000001
aaa(lp994
(lp995
g4
(g5
(S'S18'
I0
I1
tRp996
(I3
S'|'
NNNI18
I1
I0
tbS'SOQHXMF12AB0182363'
tRp997
ag4
(g5
(S'S12'
I0
I1
tRp998
(I3
S'|'
NNNI12
I1
I0
tbS'JennyAnyKind'
tRp999
ag4
(g5
(S'S15'
I0
I1
tRp1000
(I3
S'|'
NNNI15
I1
I0
tbS'Young Boy Blues'
tRp1001
aa(lp1002
F0.29626895431146333
aF218.77506
aF2.125
aF5
aF-10.021000000000001
aF207.012
aaa(lp1003
(lp1004
g4
(g5
(S'S18'
I0
I1
tRp1005
(I3
S'|'
NNNI18
I1
I0
tbS'SOKEJEJ12A8C13E0D0'
tRp1006
ag4
(g5
(S'S12'
I0
I1
tRp1007
(I3
S'|'
NNNI12
I1
I0
tbS'Wayne Watson'
tRp1008
ag4
(g5
(S'S24'
I0
I1
tRp1009
(I3
S'|'
NNNI24
I1
I0
tbS'The Urgency (LP Version)'
tRp1010
aa(lp1011
F0.35155586118563925
aF245.21098000000001
aF0.35699999999999998
aF7
aF-7.5449999999999999
aF227.47999999999999
aaa(lp1012
(lp1013
g4
(g5
(S'S18'
I0
I1
tRp1014
(I3
S'|'
NNNI18
I1
I0
tbS'SOMUYGI12AB0188633'
tRp1015
ag4
(g5
(S'S9'
I0
I1
tRp1016
(I3
S'|'
NNNI9
I1
I0
tbS'Andy Andy'
tRp1017
ag4
(g5
(S'S8'
I0
I1
tRp1018
(I3
S'|'
NNNI8
I1
I0
tbS'La Culpa'
tRp1019
aa(lp1020
F0.37948217028046749
aF226.35057
aF0
aF9
aF-6.6319999999999997
aF221.553
aaa(lp1021
(lp1022
g4
(g5
(S'S18'
I0
I1
tRp1023
(I3
S'|'
NNNI18
I1
I0
tbS'SORAMLE12AB017C8B0'
tRp1024
ag4
(g5
(S'S9'
I0
I1
tRp1025
(I3
S'|'
NNNI9
I1
I0
tbS'Bob Azzam'
tRp1026
ag4
(g5
(S'S14'
I0
I1
tRp1027
(I3
S'|'
NNNI14
I1
I0
tbS'Auguri Cha Cha'
tRp1028
aa(lp1029
F0.25193652476242323
aF191.84280999999999
aF0.38
aF10
aF-7.75
aF188.42400000000001
aaa(lp1030
(lp1031
g4
(g5
(S'S18'
I0
I1
tRp1032
(I3
S'|'
NNNI18
I1
I0
tbS'SOBONFF12A6D4F84D8'
tRp1033
ag4
(g5
(S'S13'
I0
I1
tRp1034
(I3
S'|'
NNNI13
I1
I0
tbS'Lionel Richie'
tRp1035
ag4
(g5
(S'S23'
I0
I1
tRp1036
(I3
S'|'
NNNI23
I1
I0
tbS'Tonight Will Be Alright'
tRp1037
aa(lp1038
F0.55307199146197528
aF307.38240000000002
aF0.61199999999999999
aF3
aF-8.3460000000000001
aF296.65800000000002
aaa(lp1039
(lp1040
g4
(g5
(S'S18'
I0
I1
tRp1041
(I3
S'|'
NNNI18
I1
I0
tbS'SOHUOAP12A8AE488E9'
tRp1042
ag4
(g5
(S'S10'
I0
I1
tRp1043
(I3
S'|'
NNNI10
I1
I0
tbS'Blue Rodeo'
tRp1044
ag4
(g5
(S'S8'
I0
I1
tRp1045
(I3
S'|'
NNNI8
I1
I0
tbS'Floating'
tRp1046
aa(lp1047
F0.44793548047950221
aF491.12770999999998
aF0
aF7
aF-8.5760000000000005
aF486.03399999999999
aaa(lp1048
(lp1049
g4
(g5
(S'S18'
I0
I1
tRp1050
(I3
S'|'
NNNI18
I1
I0
tbS'SOUQQEA12A8C134B1B'
tRp1051
ag4
(g5
(S'S15'
I0
I1
tRp1052
(I3
S'|'
NNNI15
I1
I0
tbS'Richard Souther'
tRp1053
ag4
(g5
(S'S9'
I0
I1
tRp1054
(I3
S'|'
NNNI9
I1
I0
tbS'High Tide'
tRp1055
aa(lp1056
F0.33080635685585685
aF228.59710000000001
aF0.223
aF8
aF-16.109999999999999
aF217.42599999999999
aaa(lp1057
(lp1058
g4
(g5
(S'S18'
I0
I1
tRp1059
(I3
S'|'
NNNI18
I1
I0
tbS'SOILPQQ12AB017E82A'
tRp1060
ag4
(g5
(S'S13'
I0
I1
tRp1061
(I3
S'|'
NNNI13
I1
I0
tbS'Faiz Ali Faiz'
tRp1062
ag4
(g5
(S'S20'
I0
I1
tRp1063
(I3
S'|'
NNNI20
I1
I0
tbS'Sohna Nee Sohna Data'
tRp1064
aa(lp1065
F0.30667609347902947
aF599.24852999999996
aF1.1930000000000001
aF6
aF-8.032
aF591.99900000000002
aaa(lp1066
(lp1067
g4
(g5
(S'S18'
I0
I1
tRp1068
(I3
S'|'
NNNI18
I1
I0
tbS'SOXLBJT12A8C140925'
tRp1069
ag4
(g5
(S'S5'
I0
I1
tRp1070
(I3
S'|'
NNNI5
I1
I0
tbS'Tesla'
tRp1071
ag4
(g5
(S'S17'
I0
I1
tRp1072
(I3
S'|'
NNNI17
I1
I0
tbS'Caught In A Dream'
tRp1073
aa(lp1074
F0.51346328970215582
aF290.29831999999999
aF0.14499999999999999
aF7
aF-5.2709999999999999
aF285.60500000000002
aaa(lp1075
(lp1076
g4
(g5
(S'S18'
I0
I1
tRp1077
(I3
S'|'
NNNI18
I1
I0
tbS'SOZVMJI12AB01808AF'
tRp1078
ag4
(g5
(S'S9'
I0
I1
tRp1079
(I3
S'|'
NNNI9
I1
I0
tbS'lextrical'
tRp1080
ag4
(g5
(S'S15'
I0
I1
tRp1081
(I3
S'|'
NNNI15
I1
I0
tbS'Synthetic Dream'
tRp1082
aa(lp1083
F0
aF165.69424000000001
aF0.16200000000000001
aF7
aF-6.7869999999999999
aF157.39099999999999
aaa(lp1084
(lp1085
g4
(g5
(S'S18'
I0
I1
tRp1086
(I3
S'|'
NNNI18
I1
I0
tbS'SOWTBJW12AC468AC6E'
tRp1087
ag4
(g5
(S'S12'
I0
I1
tRp1088
(I3
S'|'
NNNI12
I1
I0
tbS'Jimmy Wakely'
tRp1089
ag4
(g5
(S'S26'
I0
I1
tRp1090
(I3
S'|'
NNNI26
I1
I0
tbS'Broken-Down Merry-Go-Round'
tRp1091
aa(lp1092
F0.29153972708877773
aF151.84934000000001
aF2.827
aF1
aF-15.221
aF146.19900000000001
aaa(lp1093
(lp1094
g4
(g5
(S'S18'
I0
I1
tRp1095
(I3
S'|'
NNNI18
I1
I0
tbS'SOBEBDG12A58A76D60'
tRp1096
ag4
(g5
(S'S12'
I0
I1
tRp1097
(I3
S'|'
NNNI12
I1
I0
tbS'Alice Stuart'
tRp1098
ag4
(g5
(S'S12'
I0
I1
tRp1099
(I3
S'|'
NNNI12
I1
I0
tbS'Kassie Jones'
tRp1100
aa(lp1101
F0.32855301501801859
aF220.78648999999999
aF0.20599999999999999
aF11
aF-8.5139999999999993
aF207.65600000000001
aaa(lp1102
(lp1103
g4
(g5
(S'S18'
I0
I1
tRp1104
(I3
S'|'
NNNI18
I1
I0
tbS'SOZCTXZ12AB0182364'
tRp1105
ag4
(g5
(S'S5'
I0
I1
tRp1106
(I3
S'|'
NNNI5
I1
I0
tbS'Elena'
tRp1107
ag4
(g5
(S'S14'
I0
I1
tRp1108
(I3
S'|'
NNNI14
I1
I0
tbS'Setanta matins'
tRp1109
aa(lp1110
F0.37825468551016656
aF269.58321999999998
aF0
aF2
aF-8.0500000000000007
aF256.16800000000001
aaa(lp1111
(lp1112
g4
(g5
(S'S18'
I0
I1
tRp1113
(I3
S'|'
NNNI18
I1
I0
tbS'SOBBUGU12A8C13E95D'
tRp1114
ag4
(g5
(S'S25'
I0
I1
tRp1115
(I3
S'|'
NNNI25
I1
I0
tbS'The Dillinger Escape Plan'
tRp1116
ag4
(g5
(S'S31'
I0
I1
tRp1117
(I3
S'|'
NNNI31
I1
I0
tbS'Setting Fire to Sleeping Giants'
tRp1118
aa(lp1119
F0.54188897203364694
aF207.77751000000001
aF0.060999999999999999
aF7
aF-4.2640000000000002
aF204.696
aaa(lp1120
(lp1121
g4
(g5
(S'S18'
I0
I1
tRp1122
(I3
S'|'
NNNI18
I1
I0
tbS'SOBLGCN12AB0183212'
tRp1123
ag4
(g5
(S'S12'
I0
I1
tRp1124
(I3
S'|'
NNNI12
I1
I0
tbS'SUE THOMPSON'
tRp1125
ag4
(g5
(S'S30'
I0
I1
tRp1126
(I3
S'|'
NNNI30
I1
I0
tbS'James (Hold The Ladder Steady)'
tRp1127
aa(lp1128
F0.3062422642462862
aF124.86485
aF0
aF10
aF-12.332000000000001
aF115.73999999999999
aaa(lp1129
(lp1130
g4
(g5
(S'S18'
I0
I1
tRp1131
(I3
S'|'
NNNI18
I1
I0
tbS'SOPSWQW12A6D4F8781'
tRp1132
ag4
(g5
(S'S14'
I0
I1
tRp1133
(I3
S'|'
NNNI14
I1
I0
tbS'Five Bolt Main'
tRp1134
ag4
(g5
(S'S21'
I0
I1
tRp1135
(I3
S'|'
NNNI21
I1
I0
tbS'Made Like This (Live)'
tRp1136
aa(lp1137
F0.3636513650591166
aF225.09669
aF0
aF7
aF-5.9080000000000004
aF225.09700000000001
aaa(lp1138
(lp1139
g4
(g5
(S'S18'
I0
I1
tRp1140
(I3
S'|'
NNNI18
I1
I0
tbS'SOZQDIU12A58A7BCF6'
tRp1141
ag4
(g5
(S'S3'
I0
I1
tRp1142
(I3
S'|'
NNNI3
I1
I0
tbS'Clp'
tRp1143
ag4
(g5
(S'S17'
I0
I1
tRp1144
(I3
S'|'
NNNI17
I1
I0
tbS'Superconfidential'
tRp1145
aa(lp1146
F0.42270564102939107
aF338.31137999999999
aF0
aF6
aF-6.4859999999999998
aF338.31099999999998
aaa(lp1147
(lp1148
g4
(g5
(S'S18'
I0
I1
tRp1149
(I3
S'|'
NNNI18
I1
I0
tbS'SONYPOM12A8C13B2D7'
tRp1150
ag4
(g5
(S'S10'
I0
I1
tRp1151
(I3
S'|'
NNNI10
I1
I0
tbS'Tim Wilson'
tRp1152
ag4
(g5
(S'S51'
I0
I1
tRp1153
(I3
S'|'
NNNI51
I1
I0
tbS'I Think My Wife Is Running Around On Me (Taco Hell)'
tRp1154
aa(lp1155
F0.34991261167456278
aF186.48770999999999
aF1.083
aF5
aF-4.516
aF175.46700000000001
aaa(lp1156
(lp1157
g4
(g5
(S'S18'
I0
I1
tRp1158
(I3
S'|'
NNNI18
I1
I0
tbS'SOBZBAZ12A6D4F8742'
tRp1159
ag4
(g5
(S'S11'
I0
I1
tRp1160
(I3
S'|'
NNNI11
I1
I0
tbS'Willie Bobo'
tRp1161
ag4
(g5
(S'S14'
I0
I1
tRp1162
(I3
S'|'
NNNI14
I1
I0
tbS'Spanish Grease'
tRp1163
aa(lp1164
F0.37967112474986731
aF168.25424000000001
aF0.20000000000000001
aF8
aF-9.6159999999999997
aF161.88999999999999
aaa(lp1165
(lp1166
g4
(g5
(S'S18'
I0
I1
tRp1167
(I3
S'|'
NNNI18
I1
I0
tbS'SOVYKGO12AB0187199'
tRp1168
ag4
(g5
(S'S10'
I0
I1
tRp1169
(I3
S'|'
NNNI10
I1
I0
tbS'Faye Adams'
tRp1170
ag4
(g5
(S'S20'
I0
I1
tRp1171
(I3
S'|'
NNNI20
I1
I0
tbS'Crazy Mixed Up World'
tRp1172
aa(lp1173
F0.2992303679293693
aF156.39465000000001
aF0.56200000000000006
aF8
aF-18.050999999999998
aF150.63399999999999
aaa(lp1174
(lp1175
g4
(g5
(S'S18'
I0
I1
tRp1176
(I3
S'|'
NNNI18
I1
I0
tbS'SOGNCJP12A58A80271'
tRp1177
ag4
(g5
(S'S13'
I0
I1
tRp1178
(I3
S'|'
NNNI13
I1
I0
tbS'Terry Callier'
tRp1179
ag4
(g5
(S'S28'
I0
I1
tRp1180
(I3
S'|'
NNNI28
I1
I0
tbS'Do You Finally Need A Friend'
tRp1181
aa(lp1182
F0.4161730646266773
aF342.56934000000001
aF0.063
aF6
aF-11.939
aF333.154
aaa(lp1183
(lp1184
g4
(g5
(S'S18'
I0
I1
tRp1185
(I3
S'|'
NNNI18
I1
I0
tbS'SOLLHMX12AB01846DC'
tRp1186
ag4
(g5
(S'S11'
I0
I1
tRp1187
(I3
S'|'
NNNI11
I1
I0
tbS'John Wesley'
tRp1188
ag4
(g5
(S'S17'
I0
I1
tRp1189
(I3
S'|'
NNNI17
I1
I0
tbS'The Emperor Falls'
tRp1190
aa(lp1191
F0.45278947675222264
aF484.62322
aF28.172000000000001
aF4
aF-15.335000000000001
aF480.363
aaa(lp1192
(lp1193
g4
(g5
(S'S18'
I0
I1
tRp1194
(I3
S'|'
NNNI18
I1
I0
tbS'SOYTPEP12AB0180E7B'
tRp1195
ag4
(g5
(S'S15'
I0
I1
tRp1196
(I3
S'|'
NNNI15
I1
I0
tbS'The Shangri-Las'
tRp1197
ag4
(g5
(S'S15'
I0
I1
tRp1198
(I3
S'|'
NNNI15
I1
I0
tbS'Twist and Shout'
tRp1199
aa(lp1200
F0.41821651819493683
aF164.80608000000001
aF0
aF10
aF-10.922000000000001
aF156.17699999999999
aaa(lp1201
(lp1202
g4
(g5
(S'S18'
I0
I1
tRp1203
(I3
S'|'
NNNI18
I1
I0
tbS'SOGXHEG12AB018653E'
tRp1204
ag4
(g5
(S'S16'
I0
I1
tRp1205
(I3
S'|'
NNNI16
I1
I0
tbS'Billie Jo Spears'
tRp1206
ag4
(g5
(S'S26'
I0
I1
tRp1207
(I3
S'|'
NNNI26
I1
I0
tbS'It Makes No Difference Now'
tRp1208
aa(lp1209
F0.38461108396163651
aF133.32853
aF0
aF4
aF-9.9830000000000005
aF130.00899999999999
aaa(lp1210
(lp1211
g4
(g5
(S'S18'
I0
I1
tRp1212
(I3
S'|'
NNNI18
I1
I0
tbS'SOOLYAZ12A6701F4A6'
tRp1213
ag4
(g5
(S'S44'
I0
I1
tRp1214
(I3
S'|'
NNNI44
I1
I0
tbS"Mike Jones (Featuring CJ_ Mello & Lil' Bran)"
tRp1215
ag4
(g5
(S'S31'
I0
I1
tRp1216
(I3
S'|'
NNNI31
I1
I0
tbS'Laws Patrolling (Album Version)'
tRp1217
aa(lp1218
F0.42631795640769016
aF173.66158999999999
aF0
aF7
aF-7.7619999999999996
aF164.90799999999999
aaa(lp1219
(lp1220
g4
(g5
(S'S18'
I0
I1
tRp1221
(I3
S'|'
NNNI18
I1
I0
tbS'SOGOSOV12AF72A285E'
tRp1222
ag4
(g5
(S'S14'
I0
I1
tRp1223
(I3
S'|'
NNNI14
I1
I0
tbS'Sierra Maestra'
tRp1224
ag4
(g5
(S'S19'
I0
I1
tRp1225
(I3
S'|'
NNNI19
I1
I0
tbS'\xc2\xbfD\xc3\xb3nde va Chichi?'
tRp1226
aa(lp1227
F0.39273367554668775
aF313.12934000000001
aF0
aF9
aF-9.5120000000000005
aF307.68799999999999
aaa(lp1228
(lp1229
g4
(g5
(S'S18'
I0
I1
tRp1230
(I3
S'|'
NNNI18
I1
I0
tbS'SOJXVAH12A8C139700'
tRp1231
ag4
(g5
(S'S16'
I0
I1
tRp1232
(I3
S'|'
NNNI16
I1
I0
tbS'Butthole Surfers'
tRp1233
ag4
(g5
(S'S29'
I0
I1
tRp1234
(I3
S'|'
NNNI29
I1
I0
tbS'Barking Dogs (From "Piouhgd")'
tRp1235
aa(lp1236
F0.48801984168567314
aF450.84688999999997
aF0.46700000000000003
aF4
aF-9.0630000000000006
aF426.10399999999998
aaa(lp1237
(lp1238
g4
(g5
(S'S18'
I0
I1
tRp1239
(I3
S'|'
NNNI18
I1
I0
tbS'SOVXMTN12A8C135A18'
tRp1240
ag4
(g5
(S'S13'
I0
I1
tRp1241
(I3
S'|'
NNNI13
I1
I0
tbS'Despina Vandi'
tRp1242
ag4
(g5
(S'S18'
I0
I1
tRp1243
(I3
S'|'
NNNI18
I1
I0
tbS'OUTE ENA EFHARISTO'
tRp1244
aa(lp1245
F0.41168895978577885
aF303.09832
aF0.067000000000000004
aF8
aF-8.8789999999999996
aF294.81799999999998
aaa(lp1246
(lp1247
g4
(g5
(S'S18'
I0
I1
tRp1248
(I3
S'|'
NNNI18
I1
I0
tbS'SORSECL12AB0182267'
tRp1249
ag4
(g5
(S'S16'
I0
I1
tRp1250
(I3
S'|'
NNNI16
I1
I0
tbS'Javier Navarrete'
tRp1251
ag4
(g5
(S'S13'
I0
I1
tRp1252
(I3
S'|'
NNNI13
I1
I0
tbS'Midnight Swim'
tRp1253
aa(lp1254
F0.38265197113973687
aF128.83546000000001
aF0
aF3
aF-17.699000000000002
aF121.423
aaa(lp1255
(lp1256
g4
(g5
(S'S18'
I0
I1
tRp1257
(I3
S'|'
NNNI18
I1
I0
tbS'SOOGFBZ12AC3DF7FF2'
tRp1258
ag4
(g5
(S'S11'
I0
I1
tRp1259
(I3
S'|'
NNNI11
I1
I0
tbS'Jacob Young'
tRp1260
ag4
(g5
(S'S15'
I0
I1
tRp1261
(I3
S'|'
NNNI15
I1
I0
tbS'In A Subtle Way'
tRp1262
aa(lp1263
F0.29486126188738199
aF456.30649
aF0.24099999999999999
aF1
aF-19.478000000000002
aF451.315
aaa(lp1264
(lp1265
g4
(g5
(S'S18'
I0
I1
tRp1266
(I3
S'|'
NNNI18
I1
I0
tbS'SOMSBGZ12AB018C4CB'
tRp1267
ag4
(g5
(S'S17'
I0
I1
tRp1268
(I3
S'|'
NNNI17
I1
I0
tbS"Scarlet's Remains"
tRp1269
ag4
(g5
(S'S4'
I0
I1
tRp1270
(I3
S'|'
NNNI4
I1
I0
tbS'Spin'
tRp1271
aa(lp1272
F0.39312193357100678
aF198.73913999999999
aF0
aF7
aF-7.4690000000000003
aF193.01599999999999
aaa(lp1273
(lp1274
g4
(g5
(S'S18'
I0
I1
tRp1275
(I3
S'|'
NNNI18
I1
I0
tbS'SONYRZV12AB018AF70'
tRp1276
ag4
(g5
(S'S20'
I0
I1
tRp1277
(I3
S'|'
NNNI20
I1
I0
tbS'The Suicide Machines'
tRp1278
ag4
(g5
(S'S24'
I0
I1
tRp1279
(I3
S'|'
NNNI24
I1
I0
tbS'Burning In The Aftermath'
tRp1280
aa(lp1281
F0.4675384440100101
aF95.686080000000004
aF0
aF2
aF-2.0219999999999998
aF87.805999999999997
aaa(lp1282
(lp1283
g4
(g5
(S'S18'
I0
I1
tRp1284
(I3
S'|'
NNNI18
I1
I0
tbS'SONQBUB12A6D4F8ED0'
tRp1285
ag4
(g5
(S'S18'
I0
I1
tRp1286
(I3
S'|'
NNNI18
I1
I0
tbS'The Rolling Stones'
tRp1287
ag4
(g5
(S'S29'
I0
I1
tRp1288
(I3
S'|'
NNNI29
I1
I0
tbS'Angie (1993 Digital Remaster)'
tRp1289
aa(lp1290
F0.73576569295064143
aF271.49016
aF0.17100000000000001
aF9
aF-10.358000000000001
aF263.78399999999999
aaa(lp1291
(lp1292
g4
(g5
(S'S18'
I0
I1
tRp1293
(I3
S'|'
NNNI18
I1
I0
tbS'SOHGKJW12AC468A8BD'
tRp1294
ag4
(g5
(S'S14'
I0
I1
tRp1295
(I3
S'|'
NNNI14
I1
I0
tbS'Roberto Torres'
tRp1296
ag4
(g5
(S'S13'
I0
I1
tRp1297
(I3
S'|'
NNNI13
I1
I0
tbS'Sabor Guajiro'
tRp1298
aa(lp1299
F0.35007857898947331
aF226.66404
aF0.311
aF0
aF-12.715999999999999
aF219.50999999999999
aaa(lp1300
(lp1301
g4
(g5
(S'S18'
I0
I1
tRp1302
(I3
S'|'
NNNI18
I1
I0
tbS'SOINBCU12A6D4F94C0'
tRp1303
ag4
(g5
(S'S21'
I0
I1
tRp1304
(I3
S'|'
NNNI21
I1
I0
tbS'Loudon Wainwright III'
tRp1305
ag4
(g5
(S'S16'
I0
I1
tRp1306
(I3
S'|'
NNNI16
I1
I0
tbS'Human Cannonball'
tRp1307
aa(lp1308
F0.44276584202895042
aF190.48444000000001
aF0.25800000000000001
aF3
aF-15.663
aF177.029
aaa(lp1309
(lp1310
g4
(g5
(S'S18'
I0
I1
tRp1311
(I3
S'|'
NNNI18
I1
I0
tbS'SOTWVQT12A58A79650'
tRp1312
ag4
(g5
(S'S13'
I0
I1
tRp1313
(I3
S'|'
NNNI13
I1
I0
tbS'R.L. Burnside'
tRp1314
ag4
(g5
(S'S8'
I0
I1
tRp1315
(I3
S'|'
NNNI8
I1
I0
tbS'Glory Be'
tRp1316
aa(lp1317
F0.46662888890168458
aF277.78566999999998
aF0.23999999999999999
aF2
aF-6.944
aF267.45299999999997
aaa(lp1318
(lp1319
g4
(g5
(S'S18'
I0
I1
tRp1320
(I3
S'|'
NNNI18
I1
I0
tbS'SOTSEJY12AB0180F56'
tRp1321
ag4
(g5
(S'S18'
I0
I1
tRp1322
(I3
S'|'
NNNI18
I1
I0
tbS'Stevie Ray Vaughan'
tRp1323
ag4
(g5
(S'S9'
I0
I1
tRp1324
(I3
S'|'
NNNI9
I1
I0
tbS'Crossfire'
tRp1325
aa(lp1326
F0.54425750572452603
aF248.78975
aF0.183
aF1
aF-7.8049999999999997
aF246.19
aaa(lp1327
(lp1328
g4
(g5
(S'S18'
I0
I1
tRp1329
(I3
S'|'
NNNI18
I1
I0
tbS'SOTSETT12AB01863B8'
tRp1330
ag4
(g5
(S'S12'
I0
I1
tRp1331
(I3
S'|'
NNNI12
I1
I0
tbS'John Hammond'
tRp1332
ag4
(g5
(S'S20'
I0
I1
tRp1333
(I3
S'|'
NNNI20
I1
I0
tbS"I Can't Be Satisfied"
tRp1334
aa(lp1335
F0.45281783769711387
aF195.31710000000001
aF0
aF7
aF-10.699999999999999
aF187.61699999999999
aaa(lp1336
(lp1337
g4
(g5
(S'S18'
I0
I1
tRp1338
(I3
S'|'
NNNI18
I1
I0
tbS'SOTUNMH12A6D4FA3E6'
tRp1339
ag4
(g5
(S'S33'
I0
I1
tRp1340
(I3
S'|'
NNNI33
I1
I0
tbS'Casiotone For The Painfully Alone'
tRp1341
ag4
(g5
(S'S19'
I0
I1
tRp1342
(I3
S'|'
NNNI19
I1
I0
tbS'Nashville Parthenon'
tRp1343
aa(lp1344
F0.39421719890100421
aF175.72525999999999
aF0.73399999999999999
aF0
aF-10.93
aF168.69900000000001
aaa(lp1345
(lp1346
g4
(g5
(S'S18'
I0
I1
tRp1347
(I3
S'|'
NNNI18
I1
I0
tbS'SOEPPKB12AB018418B'
tRp1348
ag4
(g5
(S'S5'
I0
I1
tRp1349
(I3
S'|'
NNNI5
I1
I0
tbS'Ec8or'
tRp1350
ag4
(g5
(S'S12'
I0
I1
tRp1351
(I3
S'|'
NNNI12
I1
I0
tbS'Cocain Ducks'
tRp1352
aa(lp1353
F0.33457736011909872
aF217.23383000000001
aF1.042
aF10
aF-9.4930000000000003
aF213.49600000000001
aaa(lp1354
(lp1355
g4
(g5
(S'S18'
I0
I1
tRp1356
(I3
S'|'
NNNI18
I1
I0
tbS'SOGKIWV12A6D4F86C4'
tRp1357
ag4
(g5
(S'S18'
I0
I1
tRp1358
(I3
S'|'
NNNI18
I1
I0
tbS'The New York Dolls'
tRp1359
ag4
(g5
(S'S11'
I0
I1
tRp1360
(I3
S'|'
NNNI11
I1
I0
tbS'Human Being'
tRp1361
aa(lp1362
F0.47930845933822741
aF344.05831999999998
aF0.068000000000000005
aF11
aF-9.2530000000000001
aF335.029
aaa(lp1363
(lp1364
g4
(g5
(S'S18'
I0
I1
tRp1365
(I3
S'|'
NNNI18
I1
I0
tbS'SOPHYIS12AAF3B35A3'
tRp1366
ag4
(g5
(S'S12'
I0
I1
tRp1367
(I3
S'|'
NNNI12
I1
I0
tbS'Eliane Elias'
tRp1368
ag4
(g5
(S'S18'
I0
I1
tRp1369
(I3
S'|'
NNNI18
I1
I0
tbS'The More I See You'
tRp1370
aa(lp1371
F0.42791424698295477
aF251.42812000000001
aF0.070999999999999994
aF7
aF-12.009
aF237.59800000000001
aaa(lp1372
(lp1373
g4
(g5
(S'S18'
I0
I1
tRp1374
(I3
S'|'
NNNI18
I1
I0
tbS'SOFHBAR12A6701D0FE'
tRp1375
ag4
(g5
(S'S9'
I0
I1
tRp1376
(I3
S'|'
NNNI9
I1
I0
tbS'Lost Boyz'
tRp1377
ag4
(g5
(S'S20'
I0
I1
tRp1378
(I3
S'|'
NNNI20
I1
I0
tbS'Certain Things We Do'
tRp1379
aa(lp1380
F0.41224060053560735
aF269.79219999999998
aF0.218
aF7
aF-11.042999999999999
aF257.416
aaa(lp1381
(lp1382
g4
(g5
(S'S18'
I0
I1
tRp1383
(I3
S'|'
NNNI18
I1
I0
tbS'SOCPRKM12AB018A2FD'
tRp1384
ag4
(g5
(S'S9'
I0
I1
tRp1385
(I3
S'|'
NNNI9
I1
I0
tbS'The Germs'
tRp1386
ag4
(g5
(S'S7'
I0
I1
tRp1387
(I3
S'|'
NNNI7
I1
I0
tbS'Forming'
tRp1388
aa(lp1389
F0.40439264015477133
aF206.05341999999999
aF0
aF11
aF-11.506
aF206.053
aaa(lp1390
(lp1391
g4
(g5
(S'S18'
I0
I1
tRp1392
(I3
S'|'
NNNI18
I1
I0
tbS'SOFGHAM12AB0186412'
tRp1393
ag4
(g5
(S'S13'
I0
I1
tRp1394
(I3
S'|'
NNNI13
I1
I0
tbS'Yamandu Costa'
tRp1395
ag4
(g5
(S'S6'
I0
I1
tRp1396
(I3
S'|'
NNNI6
I1
I0
tbS'Mafu\xc3\xa1'
tRp1397
aa(lp1398
F0.38347574490669173
aF190.04035999999999
aF0
aF2
aF-14.179
aF176.92400000000001
aaa(lp1399
(lp1400
g4
(g5
(S'S18'
I0
I1
tRp1401
(I3
S'|'
NNNI18
I1
I0
tbS'SODHVES12A6701CE6B'
tRp1402
ag4
(g5
(S'S9'
I0
I1
tRp1403
(I3
S'|'
NNNI9
I1
I0
tbS'Chris Rea'
tRp1404
ag4
(g5
(S'S26'
I0
I1
tRp1405
(I3
S'|'
NNNI26
I1
I0
tbS'Driving Home For Christmas'
tRp1406
aa(lp1407
F0.50069134091345302
aF241.16200000000001
aF0.54900000000000004
aF9
aF-8.5310000000000006
aF230.34200000000001
aaa(lp1408
(lp1409
g4
(g5
(S'S18'
I0
I1
tRp1410
(I3
S'|'
NNNI18
I1
I0
tbS'SOXIATP12AAF3B2184'
tRp1411
ag4
(g5
(S'S19'
I0
I1
tRp1412
(I3
S'|'
NNNI19
I1
I0
tbS'Perrey And Kingsley'
tRp1413
ag4
(g5
(S'S15'
I0
I1
tRp1414
(I3
S'|'
NNNI15
I1
I0
tbS'Spooks In Space'
tRp1415
aa(lp1416
F0.3384148184832545
aF122.64444
aF0.98999999999999999
aF0
aF-8.5410000000000004
aF109.627
aaa(lp1417
(lp1418
g4
(g5
(S'S18'
I0
I1
tRp1419
(I3
S'|'
NNNI18
I1
I0
tbS'SOGNQWU12A8AE4868F'
tRp1420
ag4
(g5
(S'S10'
I0
I1
tRp1421
(I3
S'|'
NNNI10
I1
I0
tbS'Eurythmics'
tRp1422
ag4
(g5
(S'S31'
I0
I1
tRp1423
(I3
S'|'
NNNI31
I1
I0
tbS'Tous Les Gar\xc3\xa7ons Et Les Filles'
tRp1424
aa(lp1425
F0.52369907776539082
aF207.07220000000001
aF2.5830000000000002
aF0
aF-6.6289999999999996
aF202.75700000000001
aaa(lp1426
(lp1427
g4
(g5
(S'S18'
I0
I1
tRp1428
(I3
S'|'
NNNI18
I1
I0
tbS'SOYQOFI12A6D4F76E1'
tRp1429
ag4
(g5
(S'S15'
I0
I1
tRp1430
(I3
S'|'
NNNI15
I1
I0
tbS'Francis Dunnery'
tRp1431
ag4
(g5
(S'S15'
I0
I1
tRp1432
(I3
S'|'
NNNI15
I1
I0
tbS'Too Much Saturn'
tRp1433
aa(lp1434
F0.38352424732772722
aF300.79955000000001
aF0
aF7
aF-13.33
aF298.34699999999998
aaa(lp1435
(lp1436
g4
(g5
(S'S18'
I0
I1
tRp1437
(I3
S'|'
NNNI18
I1
I0
tbS'SOVOLGY12A6D4F822B'
tRp1438
ag4
(g5
(S'S9'
I0
I1
tRp1439
(I3
S'|'
NNNI9
I1
I0
tbS'John Cale'
tRp1440
ag4
(g5
(S'S38'
I0
I1
tRp1441
(I3
S'|'
NNNI38
I1
I0
tbS'Movement 4 [from Kiss] (Album Version)'
tRp1442
aa(lp1443
F0.48165586241245567
aF228.46648999999999
aF0
aF7
aF-12.412000000000001
aF228.46600000000001
aaa(lp1444
(lp1445
g4
(g5
(S'S18'
I0
I1
tRp1446
(I3
S'|'
NNNI18
I1
I0
tbS'SOMZCVH12AB0182B8E'
tRp1447
ag4
(g5
(S'S13'
I0
I1
tRp1448
(I3
S'|'
NNNI13
I1
I0
tbS'Suzanne Ciani'
tRp1449
ag4
(g5
(S'S6'
I0
I1
tRp1450
(I3
S'|'
NNNI6
I1
I0
tbS'Stream'
tRp1451
aa(lp1452
F0.38070453582445729
aF239.59465
aF0.311
aF7
aF-21.552
aF236.50700000000001
aaa(lp1453
(lp1454
g4
(g5
(S'S18'
I0
I1
tRp1455
(I3
S'|'
NNNI18
I1
I0
tbS'SONXJBL12AAF3B2C0C'
tRp1456
ag4
(g5
(S'S13'
I0
I1
tRp1457
(I3
S'|'
NNNI13
I1
I0
tbS'Vickie Winans'
tRp1458
ag4
(g5
(S'S12'
I0
I1
tRp1459
(I3
S'|'
NNNI12
I1
I0
tbS'Make Me Over'
tRp1460
aa(lp1461
F0.39685586932534861
aF228.93669
aF0.33800000000000002
aF11
aF-8.6859999999999999
aF219.57400000000001
aaa(lp1462
(lp1463
g4
(g5
(S'S18'
I0
I1
tRp1464
(I3
S'|'
NNNI18
I1
I0
tbS'SOYWZTU12AB0180E26'
tRp1465
ag4
(g5
(S'S13'
I0
I1
tRp1466
(I3
S'|'
NNNI13
I1
I0
tbS'The Berzerker'
tRp1467
ag4
(g5
(S'S13'
I0
I1
tRp1468
(I3
S'|'
NNNI13
I1
I0
tbS'Deform (live)'
tRp1469
aa(lp1470
F0.45755390983649336
aF165.61587
aF2.1709999999999998
aF1
aF-6.2220000000000004
aF165.61600000000001
aaa(lp1471
(lp1472
g4
(g5
(S'S18'
I0
I1
tRp1473
(I3
S'|'
NNNI18
I1
I0
tbS'SOLGHDZ12AB0183B11'
tRp1474
ag4
(g5
(S'S13'
I0
I1
tRp1475
(I3
S'|'
NNNI13
I1
I0
tbS'Kings Of Leon'
tRp1476
ag4
(g5
(S'S12'
I0
I1
tRp1477
(I3
S'|'
NNNI12
I1
I0
tbS'Wicker Chair'
tRp1478
aa(lp1479
F0.78880593516201425
aF187.92444
aF0.32800000000000001
aF0
aF-5.907
aF180.34399999999999
aaa(lp1480
(lp1481
g4
(g5
(S'S18'
I0
I1
tRp1482
(I3
S'|'
NNNI18
I1
I0
tbS'SOTNTNJ12AAA15FBD6'
tRp1483
ag4
(g5
(S'S11'
I0
I1
tRp1484
(I3
S'|'
NNNI11
I1
I0
tbS'Edith Lefel'
tRp1485
ag4
(g5
(S'S12'
I0
I1
tRp1486
(I3
S'|'
NNNI12
I1
I0
tbS"An ti chans'"
tRp1487
aa(lp1488
F0.30004649036641506
aF276.50567000000001
aF0.29899999999999999
aF0
aF-4.6379999999999999
aF261.95600000000002
aaa(lp1489
(lp1490
g4
(g5
(S'S18'
I0
I1
tRp1491
(I3
S'|'
NNNI18
I1
I0
tbS'SOXZXXV12AAF3B3A67'
tRp1492
ag4
(g5
(S'S5'
I0
I1
tRp1493
(I3
S'|'
NNNI5
I1
I0
tbS'Taras'
tRp1494
ag4
(g5
(S'S35'
I0
I1
tRp1495
(I3
S'|'
NNNI35
I1
I0
tbS"I Will Love Again (JJ's Club Radio)"
tRp1496
aa(lp1497
F0.18931487775261457
aF200.25424000000001
aF0
aF11
aF-5.8840000000000003
aF194.84399999999999
aaa(lp1498
(lp1499
g4
(g5
(S'S18'
I0
I1
tRp1500
(I3
S'|'
NNNI18
I1
I0
tbS'SOPIKEG12A58291636'
tRp1501
ag4
(g5
(S'S4'
I0
I1
tRp1502
(I3
S'|'
NNNI4
I1
I0
tbS'NOFX'
tRp1503
ag4
(g5
(S'S17'
I0
I1
tRp1504
(I3
S'|'
NNNI17
I1
I0
tbS'Stickin In My Eye'
tRp1505
aa(lp1506
F0.55429148901281555
aF144.50892999999999
aF0.23699999999999999
aF4
aF-7.7869999999999999
aF140.05699999999999
aaa(lp1507
(lp1508
g4
(g5
(S'S18'
I0
I1
tRp1509
(I3
S'|'
NNNI18
I1
I0
tbS'SOIRNBO12AC468D207'
tRp1510
ag4
(g5
(S'S12'
I0
I1
tRp1511
(I3
S'|'
NNNI12
I1
I0
tbS'Murskahumppa'
tRp1512
ag4
(g5
(S'S10'
I0
I1
tRp1513
(I3
S'|'
NNNI10
I1
I0
tbS'Ota kiinni'
tRp1514
aa(lp1515
F0.26803783963074496
aF285.17831999999999
aF0
aF7
aF-8.4879999999999995
aF275.85300000000001
aaa(lp1516
(lp1517
g4
(g5
(S'S18'
I0
I1
tRp1518
(I3
S'|'
NNNI18
I1
I0
tbS'SOSBDSF12AB0189007'
tRp1519
ag4
(g5
(S'S11'
I0
I1
tRp1520
(I3
S'|'
NNNI11
I1
I0
tbS'Soda Stereo'
tRp1521
ag4
(g5
(S'S16'
I0
I1
tRp1522
(I3
S'|'
NNNI16
I1
I0
tbS'Entre Can\xc3\xadbales'
tRp1523
aa(lp1524
F0.46682699252718746
aF246.69995
aF0.32200000000000001
aF7
aF-9.6029999999999998
aF224.04900000000001
aaa(lp1525
(lp1526
g4
(g5
(S'S18'
I0
I1
tRp1527
(I3
S'|'
NNNI18
I1
I0
tbS'SOIJXXM12A8C1416D6'
tRp1528
ag4
(g5
(S'S13'
I0
I1
tRp1529
(I3
S'|'
NNNI13
I1
I0
tbS'Bruce Rowland'
tRp1530
ag4
(g5
(S'S16'
I0
I1
tRp1531
(I3
S'|'
NNNI16
I1
I0
tbS'Rosemary Recalls'
tRp1532
aa(lp1533
F0.30045445981230767
aF84.03546
aF0.32800000000000001
aF7
aF-26.265999999999998
aF75.790000000000006
aaa(lp1534
(lp1535
g4
(g5
(S'S18'
I0
I1
tRp1536
(I3
S'|'
NNNI18
I1
I0
tbS'SOHMMMC12AB0181C42'
tRp1537
ag4
(g5
(S'S9'
I0
I1
tRp1538
(I3
S'|'
NNNI9
I1
I0
tbS'Xcultures'
tRp1539
ag4
(g5
(S'S14'
I0
I1
tRp1540
(I3
S'|'
NNNI14
I1
I0
tbS'Sudanese Dance'
tRp1541
aa(lp1542
F0.26627528554651025
aF273.52771000000001
aF2.177
aF1
aF-6.3049999999999997
aF268.89299999999997
aaa(lp1543
(lp1544
g4
(g5
(S'S18'
I0
I1
tRp1545
(I3
S'|'
NNNI18
I1
I0
tbS'SOVJXVJ12A8C13517D'
tRp1546
ag4
(g5
(S'S11'
I0
I1
tRp1547
(I3
S'|'
NNNI11
I1
I0
tbS'White Heart'
tRp1548
ag4
(g5
(S'S55'
I0
I1
tRp1549
(I3
S'|'
NNNI55
I1
I0
tbS'Where The Thunder Roars (Tales Of Wonder Album Version)'
tRp1550
aa(lp1551
F0.33750728916593725
aF298.84035999999998
aF19.093
aF5
aF-9.9979999999999993
aF289.45999999999998
aaa(lp1552
(lp1553
g4
(g5
(S'S18'
I0
I1
tRp1554
(I3
S'|'
NNNI18
I1
I0
tbS'SOFZCTA12AB0188D8F'
tRp1555
ag4
(g5
(S'S17'
I0
I1
tRp1556
(I3
S'|'
NNNI17
I1
I0
tbS'Heavy D / McGruff'
tRp1557
ag4
(g5
(S'S17'
I0
I1
tRp1558
(I3
S'|'
NNNI17
I1
I0
tbS'Wanna Be A Player'
tRp1559
aa(lp1560
F0.36366811024462387
aF161.38404
aF0.16500000000000001
aF5
aF-9.1609999999999996
aF161.38399999999999
aaa(lp1561
(lp1562
g4
(g5
(S'S18'
I0
I1
tRp1563
(I3
S'|'
NNNI18
I1
I0
tbS'SOLRYQR12A670215BF'
tRp1564
ag4
(g5
(S'S9'
I0
I1
tRp1565
(I3
S'|'
NNNI9
I1
I0
tbS'Van Halen'
tRp1566
ag4
(g5
(S'S33'
I0
I1
tRp1567
(I3
S'|'
NNNI33
I1
I0
tbS'Panama (Remastered Album Version)'
tRp1568
aa(lp1569
F0.57998898242875463
aF209.29261
aF0
aF8
aF-4.8650000000000002
aF206.62299999999999
aaa(lp1570
(lp1571
g4
(g5
(S'S18'
I0
I1
tRp1572
(I3
S'|'
NNNI18
I1
I0
tbS'SOCHRXB12A8AE48069'
tRp1573
ag4
(g5
(S'S15'
I0
I1
tRp1574
(I3
S'|'
NNNI15
I1
I0
tbS'Black Eyed Peas'
tRp1575
ag4
(g5
(S'S20'
I0
I1
tRp1576
(I3
S'|'
NNNI20
I1
I0
tbS"Let's Get It Started"
tRp1577
aa(lp1578
F1.0059419659547393
aF229.61587
aF0
aF11
aF-4.8819999999999997
aF213.66399999999999
aaa(lp1579
(lp1580
g4
(g5
(S'S18'
I0
I1
tRp1581
(I3
S'|'
NNNI18
I1
I0
tbS'SOKBBXO12A6701DEA0'
tRp1582
ag4
(g5
(S'S15'
I0
I1
tRp1583
(I3
S'|'
NNNI15
I1
I0
tbS'Nine Inch Nails'
tRp1584
ag4
(g5
(S'S5'
I0
I1
tRp1585
(I3
S'|'
NNNI5
I1
I0
tbS'Metal'
tRp1586
aa(lp1587
F0.59845850098244335
aF426.89260999999999
aF0.28599999999999998
aF0
aF-12.951000000000001
aF399.89999999999998
aaa(lp1588
(lp1589
g4
(g5
(S'S18'
I0
I1
tRp1590
(I3
S'|'
NNNI18
I1
I0
tbS'SOWHYUG12A58A77FAB'
tRp1591
ag4
(g5
(S'S25'
I0
I1
tRp1592
(I3
S'|'
NNNI25
I1
I0
tbS'Nick Cave & The Bad Seeds'
tRp1593
ag4
(g5
(S'S37'
I0
I1
tRp1594
(I3
S'|'
NNNI37
I1
I0
tbS'She Fell Away (2009 Digital Remaster)'
tRp1595
aa(lp1596
F0.47940767557514763
aF269.26974999999999
aF3.8889999999999998
aF9
aF-11.750999999999999
aF262.798
aaa(lp1597
(lp1598
g4
(g5
(S'S18'
I0
I1
tRp1599
(I3
S'|'
NNNI18
I1
I0
tbS'SOYSTDI12A6D4F6500'
tRp1600
ag4
(g5
(S'S12'
I0
I1
tRp1601
(I3
S'|'
NNNI12
I1
I0
tbS'Nadine Renee'
tRp1602
ag4
(g5
(S'S9'
I0
I1
tRp1603
(I3
S'|'
NNNI9
I1
I0
tbS'Next Time'
tRp1604
aa(lp1605
F0.13924739387110993
aF249.41668999999999
aF0.64700000000000002
aF2
aF-6.6929999999999996
aF238.434
aaa(lp1606
(lp1607
g4
(g5
(S'S18'
I0
I1
tRp1608
(I3
S'|'
NNNI18
I1
I0
tbS'SOOOROX12A6D4F8400'
tRp1609
ag4
(g5
(S'S11'
I0
I1
tRp1610
(I3
S'|'
NNNI11
I1
I0
tbS'Lesley Gore'
tRp1611
ag4
(g5
(S'S13'
I0
I1
tRp1612
(I3
S'|'
NNNI13
I1
I0
tbS"It's My Party"
tRp1613
aa(lp1614
F0.3891007762801808
aF136.48934
aF0.22900000000000001
aF9
aF-9.0909999999999993
aF130.02600000000001
aaa(lp1615
(lp1616
g4
(g5
(S'S18'
I0
I1
tRp1617
(I3
S'|'
NNNI18
I1
I0
tbS'SONSPZE12AB01819CE'
tRp1618
ag4
(g5
(S'S9'
I0
I1
tRp1619
(I3
S'|'
NNNI9
I1
I0
tbS'Smartbomb'
tRp1620
ag4
(g5
(S'S13'
I0
I1
tRp1621
(I3
S'|'
NNNI13
I1
I0
tbS'Complicate It'
tRp1622
aa(lp1623
F0.32248510566119731
aF233.27302
aF0.38600000000000001
aF0
aF-2.6579999999999999
aF231.178
aaa(lp1624
(lp1625
g4
(g5
(S'S18'
I0
I1
tRp1626
(I3
S'|'
NNNI18
I1
I0
tbS'SOHWGFU12AB017B036'
tRp1627
ag4
(g5
(S'S7'
I0
I1
tRp1628
(I3
S'|'
NNNI7
I1
I0
tbS'Suburbs'
tRp1629
ag4
(g5
(S'S12'
I0
I1
tRp1630
(I3
S'|'
NNNI12
I1
I0
tbS'Monde De Fou'
tRp1631
aa(lp1632
F0.33565183918470087
aF187.24526
aF0.107
aF1
aF-4.4199999999999999
aF178.625
aaa(lp1633
(lp1634
g4
(g5
(S'S18'
I0
I1
tRp1635
(I3
S'|'
NNNI18
I1
I0
tbS'SOQQVQJ12AB0185192'
tRp1636
ag4
(g5
(S'S7'
I0
I1
tRp1637
(I3
S'|'
NNNI7
I1
I0
tbS'Emperor'
tRp1638
ag4
(g5
(S'S22'
I0
I1
tRp1639
(I3
S'|'
NNNI22
I1
I0
tbS'Opus a Satana (Part 2)'
tRp1640
aa(lp1641
F0.45339118607533013
aF72.619950000000003
aF0
aF9
aF-11.051
aF68.364999999999995
aaa(lp1642
(lp1643
g4
(g5
(S'S18'
I0
I1
tRp1644
(I3
S'|'
NNNI18
I1
I0
tbS'SODRHHD12AB0189F2A'
tRp1645
ag4
(g5
(S'S12'
I0
I1
tRp1646
(I3
S'|'
NNNI12
I1
I0
tbS'Julien Clerc'
tRp1647
ag4
(g5
(S'S18'
I0
I1
tRp1648
(I3
S'|'
NNNI18
I1
I0
tbS'This Melody (Live)'
tRp1649
aa(lp1650
F0.36438492446826576
aF272.63954999999999
aF2.7749999999999999
aF2
aF-9.9700000000000006
aF272.63999999999999
aaa(lp1651
(lp1652
g4
(g5
(S'S18'
I0
I1
tRp1653
(I3
S'|'
NNNI18
I1
I0
tbS'SOQGFVO12A8C13C8C3'
tRp1654
ag4
(g5
(S'S13'
I0
I1
tRp1655
(I3
S'|'
NNNI13
I1
I0
tbS'Glen Campbell'
tRp1656
ag4
(g5
(S'S18'
I0
I1
tRp1657
(I3
S'|'
NNNI18
I1
I0
tbS"I'm Gone This Time"
tRp1658
aa(lp1659
F0.4810242392118726
aF142.75873000000001
aF0.218
aF1
aF-11.335000000000001
aF135.54599999999999
aaa(lp1660
(lp1661
g4
(g5
(S'S18'
I0
I1
tRp1662
(I3
S'|'
NNNI18
I1
I0
tbS'SORABMD12A8C136672'
tRp1663
ag4
(g5
(S'S13'
I0
I1
tRp1664
(I3
S'|'
NNNI13
I1
I0
tbS'T.G. Sheppard'
tRp1665
ag4
(g5
(S'S22'
I0
I1
tRp1666
(I3
S'|'
NNNI22
I1
I0
tbS'You Feel Good All Over'
tRp1667
aa(lp1668
F0.34328188178708335
aF194.11546000000001
aF0.088999999999999996
aF5
aF-15.581
aF182.72900000000001
aaa(lp1669
(lp1670
g4
(g5
(S'S18'
I0
I1
tRp1671
(I3
S'|'
NNNI18
I1
I0
tbS'SOTUBVH12AB018D2EC'
tRp1672
ag4
(g5
(S'S12'
I0
I1
tRp1673
(I3
S'|'
NNNI12
I1
I0
tbS'Slim Whitman'
tRp1674
ag4
(g5
(S'S16'
I0
I1
tRp1675
(I3
S'|'
NNNI16
I1
I0
tbS'Indian Love Call'
tRp1676
aa(lp1677
F0.38666909170602387
aF195.91791000000001
aF0.16500000000000001
aF3
aF-11.98
aF192.08699999999999
aaa(lp1678
(lp1679
g4
(g5
(S'S18'
I0
I1
tRp1680
(I3
S'|'
NNNI18
I1
I0
tbS'SOMQAGT12A8C132DB4'
tRp1681
ag4
(g5
(S'S13'
I0
I1
tRp1682
(I3
S'|'
NNNI13
I1
I0
tbS'Savage Garden'
tRp1683
ag4
(g5
(S'S21'
I0
I1
tRp1684
(I3
S'|'
NNNI21
I1
I0
tbS'You Can Still Be Free'
tRp1685
aa(lp1686
F0.53807029512378279
aF118.33423999999999
aF0
aF9
aF-11.215
aF118.334
aaa(lp1687
(lp1688
g4
(g5
(S'S18'
I0
I1
tRp1689
(I3
S'|'
NNNI18
I1
I0
tbS'SOKLLOH12A67020F2C'
tRp1690
ag4
(g5
(S'S23'
I0
I1
tRp1691
(I3
S'|'
NNNI23
I1
I0
tbS'Queens Of The Stone Age'
tRp1692
ag4
(g5
(S'S12'
I0
I1
tRp1693
(I3
S'|'
NNNI12
I1
I0
tbS'I Never Came'
tRp1694
aa(lp1695
F0.55241334551694454
aF288.41750999999999
aF0.113
aF2
aF-8.1649999999999991
aF279.17899999999997
aaa(lp1696
(lp1697
g4
(g5
(S'S18'
I0
I1
tRp1698
(I3
S'|'
NNNI18
I1
I0
tbS'SONRLQH12AB017C232'
tRp1699
ag4
(g5
(S'S40'
I0
I1
tRp1700
(I3
S'|'
NNNI40
I1
I0
tbS'Hank Penny & The Lincoln Penny Orchestra'
tRp1701
ag4
(g5
(S'S5'
I0
I1
tRp1702
(I3
S'|'
NNNI5
I1
I0
tbS'Dixie'
tRp1703
aa(lp1704
F0.34759888868353678
aF123.21914
aF1.0009999999999999
aF7
aF-12.69
aF118.07899999999999
aaa(lp1705
(lp1706
g4
(g5
(S'S18'
I0
I1
tRp1707
(I3
S'|'
NNNI18
I1
I0
tbS'SODDZAD12A6701DC4C'
tRp1708
ag4
(g5
(S'S16'
I0
I1
tRp1709
(I3
S'|'
NNNI16
I1
I0
tbS'Inspiral Carpets'
tRp1710
ag4
(g5
(S'S16'
I0
I1
tRp1711
(I3
S'|'
NNNI16
I1
I0
tbS'Commercial Reign'
tRp1712
aa(lp1713
F0.39854753538058046
aF283.76771000000002
aF0
aF2
aF-8.6999999999999993
aF271.82999999999998
aaa(lp1714
(lp1715
g4
(g5
(S'S18'
I0
I1
tRp1716
(I3
S'|'
NNNI18
I1
I0
tbS'SORENXV12A6701F61F'
tRp1717
ag4
(g5
(S'S8'
I0
I1
tRp1718
(I3
S'|'
NNNI8
I1
I0
tbS'Borialis'
tRp1719
ag4
(g5
(S'S9'
I0
I1
tRp1720
(I3
S'|'
NNNI9
I1
I0
tbS'Hourglass'
tRp1721
aa(lp1722
F0.42141510254240711
aF239.3073
aF0.182
aF2
aF-5.758
aF220.26400000000001
aaa(lp1723
(lp1724
g4
(g5
(S'S18'
I0
I1
tRp1725
(I3
S'|'
NNNI18
I1
I0
tbS'SOYMMDY12AB01825B2'
tRp1726
ag4
(g5
(S'S16'
I0
I1
tRp1727
(I3
S'|'
NNNI16
I1
I0
tbS'The Dirty Skirts'
tRp1728
ag4
(g5
(S'S4'
I0
I1
tRp1729
(I3
S'|'
NNNI4
I1
I0
tbS'Wake'
tRp1730
aa(lp1731
F0.40418220665370436
aF206.75873000000001
aF0.096000000000000002
aF0
aF-4.907
aF193.11500000000001
aaa(lp1732
(lp1733
g4
(g5
(S'S18'
I0
I1
tRp1734
(I3
S'|'
NNNI18
I1
I0
tbS'SOJWQIP12A6D4F710A'
tRp1735
ag4
(g5
(S'S14'
I0
I1
tRp1736
(I3
S'|'
NNNI14
I1
I0
tbS'Flor Silvestre'
tRp1737
ag4
(g5
(S'S16'
I0
I1
tRp1738
(I3
S'|'
NNNI16
I1
I0
tbS'Caricia Y Herida'
tRp1739
aa(lp1740
F0.31356934268380171
aF134.81751
aF0
aF11
aF-8.1329999999999991
aF130.72300000000001
aaa(lp1741
(lp1742
g4
(g5
(S'S18'
I0
I1
tRp1743
(I3
S'|'
NNNI18
I1
I0
tbS'SOOVOKS12AB017EE57'
tRp1744
ag4
(g5
(S'S5'
I0
I1
tRp1745
(I3
S'|'
NNNI5
I1
I0
tbS'B\xc3\xa9zu'
tRp1746
ag4
(g5
(S'S13'
I0
I1
tRp1747
(I3
S'|'
NNNI13
I1
I0
tbS'Le tortillard'
tRp1748
aa(lp1749
F0.14898548099227371
aF285.64852999999999
aF0.39700000000000002
aF8
aF-9.093
aF274.72699999999998
aaa(lp1750
(lp1751
g4
(g5
(S'S18'
I0
I1
tRp1752
(I3
S'|'
NNNI18
I1
I0
tbS'SORWHWY12A6702038E'
tRp1753
ag4
(g5
(S'S6'
I0
I1
tRp1754
(I3
S'|'
NNNI6
I1
I0
tbS'Redman'
tRp1755
ag4
(g5
(S'S11'
I0
I1
tRp1756
(I3
S'|'
NNNI11
I1
I0
tbS'WKYA (drop)'
tRp1757
aa(lp1758
F0.49356684269655965
aF124.18567
aF0
aF1
aF-10.295999999999999
aF121.005
aaa(lp1759
(lp1760
g4
(g5
(S'S18'
I0
I1
tRp1761
(I3
S'|'
NNNI18
I1
I0
tbS'SOGYYLE12A8C13E5EA'
tRp1762
ag4
(g5
(S'S18'
I0
I1
tRp1763
(I3
S'|'
NNNI18
I1
I0
tbS'Solistiyhtye Suomi'
tRp1764
ag4
(g5
(S'S11'
I0
I1
tRp1765
(I3
S'|'
NNNI11
I1
I0
tbS'Ter\xc3\xa4slintu'
tRp1766
aa(lp1767
F0.31781095981227042
aF134.08608000000001
aF4.4409999999999998
aF4
aF-12.839
aF130.38
aaa(lp1768
(lp1769
g4
(g5
(S'S18'
I0
I1
tRp1770
(I3
S'|'
NNNI18
I1
I0
tbS'SOITUXQ12AB0183AE9'
tRp1771
ag4
(g5
(S'S12'
I0
I1
tRp1772
(I3
S'|'
NNNI12
I1
I0
tbS'Eddie Cantor'
tRp1773
ag4
(g5
(S'S30'
I0
I1
tRp1774
(I3
S'|'
NNNI30
I1
I0
tbS"Now's The Time To Fall In Love"
tRp1775
aa(lp1776
F0.33109012633891616
aF155.61098000000001
aF0.154
aF11
aF-13.710000000000001
aF150.75
aaa(lp1777
(lp1778
g4
(g5
(S'S18'
I0
I1
tRp1779
(I3
S'|'
NNNI18
I1
I0
tbS'SOTWEZZ12A8C142B60'
tRp1780
ag4
(g5
(S'S8'
I0
I1
tRp1781
(I3
S'|'
NNNI8
I1
I0
tbS'Schizoid'
tRp1782
ag4
(g5
(S'S49'
I0
I1
tRp1783
(I3
S'|'
NNNI49
I1
I0
tbS'Grim Prospects (Gross Prospects - Bad Trip Remix)'
tRp1784
aa(lp1785
F0.34919221761645924
aF275.40852999999998
aF0
aF9
aF-2.1190000000000002
aF272.55599999999998
aaa(lp1786
(lp1787
g4
(g5
(S'S18'
I0
I1
tRp1788
(I3
S'|'
NNNI18
I1
I0
tbS'SOUVRGZ12A58A77F90'
tRp1789
ag4
(g5
(S'S11'
I0
I1
tRp1790
(I3
S'|'
NNNI11
I1
I0
tbS'Kai Winding'
tRp1791
ag4
(g5
(S'S6'
I0
I1
tRp1792
(I3
S'|'
NNNI6
I1
I0
tbS'Mangos'
tRp1793
aa(lp1794
F0.31635400082229742
aF223.47710000000001
aF0.29099999999999998
aF0
aF-14.438000000000001
aF220.02600000000001
aaa(lp1795
(lp1796
g4
(g5
(S'S18'
I0
I1
tRp1797
(I3
S'|'
NNNI18
I1
I0
tbS'SOBLTSM12A6D4F9EEA'
tRp1798
ag4
(g5
(S'S13'
I0
I1
tRp1799
(I3
S'|'
NNNI13
I1
I0
tbS'Sonny Simmons'
tRp1800
ag4
(g5
(S'S15'
I0
I1
tRp1801
(I3
S'|'
NNNI15
I1
I0
tbS'A Distant Voice'
tRp1802
aa(lp1803
F0.31783387920026202
aF443.24525999999997
aF0.23000000000000001
aF1
aF-13.002000000000001
aF430.73599999999999
aaa.