(lp1
(lp2
F300848
aF108.82449251453473
aF0.45573255813953512
acnumpy.core.multiarray
_reconstruct
p3
(cnumpy
ndarray
p4
(I0
tS'b'
tRp5
(I1
(I0
tcnumpy
dtype
p6
(S'i4'
I0
I1
tRp7
(I3
S'<'
NNNI-1
I-1
I0
tbI00
S''
tbaF0
aa(lp8
F300822
aF73.201140795262333
aF0.61600846023688693
ag3
(g4
(I0
tS'b'
tRp9
(I1
(I1
tg7
I00
S'\x01\x00\x00\x00'
tbaF1969
aa(lp10
F514953
aF86.647262542955261
aF0.33256013745704482
ag3
(g4
(I0
tS'b'
tRp11
(I1
(I0
tg7
I00
S''
tbaF0
aa(lp12
F287650
aF116.61743100649349
aF0.26019155844155878
aF1
aF1982
aa(lp13
F611336
aF102.5309116009019
aF0.25752874859075531
ag3
(g4
(I0
tS'b'
tRp14
(I1
(I0
tg7
I00
S''
tbaF2007
aa(lp15
F41838
aF129.3755804344392
aF0.18720458135860993
ag3
(g4
(I0
tS'b'
tRp16
(I1
(I0
tg7
I00
S''
tbaF0
aa(lp17
F25824
aF56.754003110599122
aF0.28627880184331816
ag3
(g4
(I0
tS'b'
tRp18
(I1
(I0
tg7
I00
S''
tbaF0
aa(lp19
F8876
aF92.002316757188538
aF0.20732747603833895
ag3
(g4
(I0
tS'b'
tRp20
(I1
(I0
tg7
I00
S''
tbaF0
aa(lp21
F358182
aF133.57381855548269
aF0.17884766907419597
ag3
(g4
(I0
tS'b'
tRp22
(I1
(I0
tg7
I00
S''
tbaF1984
aa(lp23
F692313
aF131.54920554999995
aF0.90414600000000134
ag3
(g4
(I0
tS'b'
tRp24
(I1
(I0
tg7
I00
S''
tbaF0
aa(lp25
F539081
aF106.26855067372473
aF0.16967949951876773
ag3
(g4
(I0
tS'b'
tRp26
(I1
(I0
tg7
I00
S''
tbaF0
aa(lp27
F163874
aF120.37552094080333
aF0.42022093023255863
ag3
(g4
(I0
tS'b'
tRp28
(I1
(I0
tg7
I00
S''
tbaF0
aa(lp29
F575792
aF111.98164058702362
aF0.7004098867147277
ag3
(g4
(I0
tS'b'
tRp30
(I1
(I0
tg7
I00
S''
tbaF0
aa(lp31
F815863
aF95.300975339470611
aF0.50717836593786036
ag3
(g4
(I0
tS'b'
tRp32
(I1
(I0
tg7
I00
S''
tbaF0
aa(lp33
F25811
aF153.30235113725476
aF0.4662619607843142
ag3
(g4
(I0
tS'b'
tRp34
(I1
(I1
tg7
I00
S'\x01\x00\x00\x00'
tbaF1986
aa(lp35
F135122
aF247.83095691569909
aF0.43320393740535051
aF1.25
aF1987
aa(lp36
F149958
aF112.28204426778244
aF0.43633821478382001
ag3
(g4
(I0
tS'b'
tRp37
(I1
(I0
tg7
I00
S''
tbaF0
aa(lp38
F535188
aF301.40012516038735
aF0.43707281059062958
ag3
(g4
(I0
tS'b'
tRp39
(I1
(I0
tg7
I00
S''
tbaF0
aa(lp40
F372309
aF142.78891222689086
aF0.2316022408963582
ag3
(g4
(I0
tS'b'
tRp41
(I1
(I0
tg7
I00
S''
tbaF2004
aa(lp42
F541101
aF80.32508962110964
aF0.38667523680649502
ag3
(g4
(I0
tS'b'
tRp43
(I1
(I0
tg7
I00
S''
tbaF0
aa(lp44
F605134
aF72.906567862232748
aF0.44913064133016606
ag3
(g4
(I0
tS'b'
tRp45
(I1
(I0
tg7
I00
S''
tbaF0
aa(lp46
F239740
aF108.00977459974578
aF0.40728335451080039
ag3
(g4
(I0
tS'b'
tRp47
(I1
(I0
tg7
I00
S''
tbaF0
aa(lp48
F386995
aF126.44876405840891
aF0.14074018126888205
ag3
(g4
(I0
tS'b'
tRp49
(I1
(I0
tg7
I00
S''
tbaF0
aa(lp50
F223365
aF102.94666697552454
aF0.23953234265734283
aF1
aF2004
aa(lp51
F652784
aF62.141809912280728
aF0.67917192982456143
ag3
(g4
(I0
tS'b'
tRp52
(I1
(I0
tg7
I00
S''
tbaF1985
aa(lp53
F45730
aF113.18837060827252
aF0.12241281427412831
ag3
(g4
(I0
tS'b'
tRp54
(I1
(I0
tg7
I00
S''
tbaF0
aa(lp55
F672016
aF168.8726886089425
aF0.65566572036905701
ag3
(g4
(I0
tS'b'
tRp56
(I1
(I0
tg7
I00
S''
tbaF0
aa(lp57
F160881
aF92.666663645083986
aF0.3492218225419666
ag3
(g4
(I0
tS'b'
tRp58
(I1
(I0
tg7
I00
S''
tbaF2005
aa(lp59
F59744
aF83.428478519040837
aF0.56761354019746091
ag3
(g4
(I0
tS'b'
tRp60
(I1
(I0
tg7
I00
S''
tbaF1997
aa(lp61
F373723
aF75.812123880903442
aF0.15627104722792612
ag3
(g4
(I0
tS'b'
tRp62
(I1
(I0
tg7
I00
S''
tbaF1961
aa(lp63
F228326
aF169.03208176800007
aF0.13031360000000003
ag3
(g4
(I0
tS'b'
tRp64
(I1
(I1
tg7
I00
S'\x01\x00\x00\x00'
tbaF1972
aa(lp65
F463514
aF240.74947177667255
aF0.2862310126582277
ag3
(g4
(I0
tS'b'
tRp66
(I1
(I0
tg7
I00
S''
tbaF0
aa(lp67
F643400
aF78.603761581259121
aF0.33119765739385082
ag3
(g4
(I0
tS'b'
tRp68
(I1
(I0
tg7
I00
S''
tbaF1964
aa(lp69
F663761
aF65.789651576704557
aF0.14372443181818201
ag3
(g4
(I0
tS'b'
tRp70
(I1
(I0
tg7
I00
S''
tbaF1992
aa(lp71
F12882
aF85.08382433823536
aF0.38530567226890772
ag3
(g4
(I0
tS'b'
tRp72
(I1
(I0
tg7
I00
S''
tbaF0
aa(lp73
F270281
aF151.24244241500008
aF0.21398250000000021
ag3
(g4
(I0
tS'b'
tRp74
(I1
(I0
tg7
I00
S''
tbaF1997
aa(lp75
F244586
aF223.11355590862289
aF0.13968945379594613
aF1
aF0
aa(lp76
F157648
aF148.16257810493335
aF0.18927329678935015
ag3
(g4
(I0
tS'b'
tRp77
(I1
(I0
tg7
I00
S''
tbaF0
aa(lp78
F644631
aF62.944246675392677
aF0.098549738219895267
ag3
(g4
(I0
tS'b'
tRp79
(I1
(I0
tg7
I00
S''
tbaF0
aa(lp80
F730551
aF227.20978035542413
aF0.32524287300999694
ag3
(g4
(I0
tS'b'
tRp81
(I1
(I1
tg7
I00
S'\x01\x00\x00\x00'
tbaF0
aa(lp82
F709879
aF95.843214838420039
aF0.069768402154398682
ag3
(g4
(I0
tS'b'
tRp83
(I1
(I0
tg7
I00
S''
tbaF2007
aa(lp84
F706005
aF43.595056439169149
aF0.24154896142433235
ag3
(g4
(I0
tS'b'
tRp85
(I1
(I0
tg7
I00
S''
tbaF2003
aa(lp86
F42595
aF134.5091670616884
aF0.21737581168831166
aF1.3846153846153846
aF0
aa(lp87
F782470
aF111.73788568807342
aF0.60512844036697278
ag3
(g4
(I0
tS'b'
tRp88
(I1
(I0
tg7
I00
S''
tbaF0
aa(lp89
F28723
aF89.899722470076227
aF0.13848095756256837
aF1
aF1995
aa(lp90
F557761
aF138.60839030084222
aF0.8329362214199767
aF1
aF2004
aa(lp91
F417945
aF124.50009306889342
aF0.41586221294363263
ag3
(g4
(I0
tS'b'
tRp92
(I1
(I1
tg7
I00
S'\x01\x00\x00\x00'
tbaF1992
aa(lp93
F575531
aF94.394546018041282
aF0.37025644329896895
ag3
(g4
(I0
tS'b'
tRp94
(I1
(I1
tg7
I00
S'\x01\x00\x00\x00'
tbaF2002
aa(lp95
F234425
aF86.024880098280136
aF0.82609213759213729
ag3
(g4
(I0
tS'b'
tRp96
(I1
(I1
tg7
I00
S'\x01\x00\x00\x00'
tbaF2006
aa(lp97
F505301
aF108.38192977519928
aF0.10092748368382876
ag3
(g4
(I0
tS'b'
tRp98
(I1
(I0
tg7
I00
S''
tbaF1995
aa(lp99
F74655
aF171.17314011918279
aF0.20043870601589078
aF1
aF1974
aa(lp100
F322532
aF125.99298106046498
aF0.41130511627906918
aF1
aF2009
aa(lp101
F14592
aF134.57121448954484
aF0.47470110701106988
aF1
aF1997
aa(lp102
F515081
aF101.03323647249196
aF0.16432146709816611
aF1
aF1977
aa(lp103
F765750
aF91.444813059105329
aF0.24251517571884995
ag3
(g4
(I0
tS'b'
tRp104
(I1
(I0
tg7
I00
S''
tbaF0
aa(lp105
F17220
aF119.17220167714888
aF0.27218448637316595
aF1
aF1986
aa(lp106
F617077
aF59.583562920245349
aF0.41896564417177912
ag3
(g4
(I0
tS'b'
tRp107
(I1
(I0
tg7
I00
S''
tbaF1966
aa(lp108
F278999
aF104.05694825567495
aF0.12436917562724024
aF1.2222222222222223
aF1985
aa(lp109
F19601
aF151.72947799999992
aF0.23323040000000023
ag3
(g4
(I0
tS'b'
tRp110
(I1
(I0
tg7
I00
S''
tbaF1995
aa(lp111
F38599
aF114.05266751434046
aF0.20473996175908227
aF1.1111111111111112
aF1997
aa(lp112
F619882
aF118.9561947635935
aF0.10204846335697423
aF1
aF0
aa(lp113
F618615
aF113.28680510429461
aF0.38109693251533688
ag3
(g4
(I0
tS'b'
tRp114
(I1
(I0
tg7
I00
S''
tbaF0
aa(lp115
F681639
aF80.933007736040594
aF0.068405076142132024
ag3
(g4
(I0
tS'b'
tRp116
(I1
(I1
tg7
I00
S'\x01\x00\x00\x00'
tbaF2000
aa(lp117
F449471
aF93.164119764542988
aF0.27645567867036014
aF1.2
aF2003
aa(lp118
F321356
aF135.68905068797406
aF0.42557421451787619
ag3
(g4
(I0
tS'b'
tRp119
(I1
(I0
tg7
I00
S''
tbaF0
aa(lp120
F530141
aF98.556450582639712
aF0.42164090368608853
ag3
(g4
(I0
tS'b'
tRp121
(I1
(I0
tg7
I00
S''
tbaF0
aa(lp122
F104765
aF72.040982972973012
aF0.16771123755334297
aF1.3999999999999999
aF1992
aa(lp123
F695158
aF142.18857165550236
aF0.068753110047846927
ag3
(g4
(I0
tS'b'
tRp124
(I1
(I0
tg7
I00
S''
tbaF0
aa(lp125
F509770
aF123.27314053318821
aF0.34725462459194745
aF1
aF1990
aa(lp126
F223779
aF40.597051798107252
aF0.089031545741325047
ag3
(g4
(I0
tS'b'
tRp127
(I1
(I0
tg7
I00
S''
tbaF1985
aa(lp128
F466577
aF134.59924835860841
aF0.64801873327386283
ag3
(g4
(I0
tS'b'
tRp129
(I1
(I0
tg7
I00
S''
tbaF2000
aa(lp130
F148547
aF147.64896337188614
aF0.36563167259786489
ag3
(g4
(I0
tS'b'
tRp131
(I1
(I0
tg7
I00
S''
tbaF0
aa(lp132
F423012
aF80.302435418671877
aF0.69090279114533171
ag3
(g4
(I0
tS'b'
tRp133
(I1
(I0
tg7
I00
S''
tbaF1997
aa(lp134
F7133
aF103.47066133333333
aF0.27099179487179481
aF1
aF0
aa(lp135
F358442
aF112.89131683823523
aF0.349073529411765
aF1
aF2004
aa(lp136
F15567
aF211.44140679054061
aF0.56610698198198184
aF1.9166666666666667
aF2000
aa(lp137
F413222
aF133.76992851851853
aF0.17704166666666679
aF1.25
aF0
aa(lp138
F80578
aF121.67184952276065
aF0.3001130690161527
ag3
(g4
(I0
tS'b'
tRp139
(I1
(I0
tg7
I00
S''
tbaF0
aa(lp140
F26902
aF68.026714623287688
aF0.47043493150684901
ag3
(g4
(I0
tS'b'
tRp141
(I1
(I1
tg7
I00
S'\x01\x00\x00\x00'
tbaF1963
aa(lp142
F633532
aF115.86271534313717
aF0.30944999999999967
ag3
(g4
(I0
tS'b'
tRp143
(I1
(I0
tg7
I00
S''
tbaF2001
aa(lp144
F435830
aF89.650423976342125
aF0.2949008189262961
ag3
(g4
(I0
tS'b'
tRp145
(I1
(I0
tg7
I00
S''
tbaF2005
aa(lp146
F495734
aF35.614246115107868
aF0.082398081534772238
ag3
(g4
(I0
tS'b'
tRp147
(I1
(I0
tg7
I00
S''
tbaF0
aa(lp148
F664484
aF136.68458575506455
aF0.11938674033149166
ag3
(g4
(I0
tS'b'
tRp149
(I1
(I1
tg7
I00
S'\x01\x00\x00\x00'
tbaF0
aa(lp150
F112851
aF68.921525189873449
aF0.38084493670886022
ag3
(g4
(I0
tS'b'
tRp151
(I1
(I1
tg7
I00
S'\x01\x00\x00\x00'
tbaF0
aa(lp152
F200689
aF93.284454277456604
aF0.3012947976878611
ag3
(g4
(I0
tS'b'
tRp153
(I1
(I0
tg7
I00
S''
tbaF2002
aa(lp154
F682725
aF97.499364747252756
aF0.092543956043956085
ag3
(g4
(I0
tS'b'
tRp155
(I1
(I0
tg7
I00
S''
tbaF1990
aa(lp156
F287804
aF58.656955230460945
aF0.089913827655310613
aF1.4285714285714286
aF1999
aa(lp157
F220917
aF144.78361267202843
aF0.55849687220732702
aF1.8333333333333333
aF2005
aa(lp158
F629785
aF59.513008682634741
aF0.30821357285429146
ag3
(g4
(I0
tS'b'
tRp159
(I1
(I0
tg7
I00
S''
tbaF0
aa(lp160
F11305
aF140.21898908662902
aF0.27247269303201493
aF1.2857142857142858
aF1990
aa(lp161
F4967
aF113.88699575414786
aF0.14806485671191569
ag3
(g4
(I0
tS'b'
tRp162
(I1
(I0
tg7
I00
S''
tbaF0
aa(lp163
F325335
aF99.427130873269363
aF0.2586687965921195
aF1
aF0
aa(lp164
F82932
aF66.399412296137328
aF0.44021673819742529
ag3
(g4
(I0
tS'b'
tRp165
(I1
(I0
tg7
I00
S''
tbaF0
aa(lp166
F401583
aF141.09284608732165
aF0.38222837951301375
ag3
(g4
(I0
tS'b'
tRp167
(I1
(I0
tg7
I00
S''
tbaF0
aa(lp168
F8552
aF61.841666041275815
aF0.24299249530956846
aF1
aF2001
aa(lp169
F217058
aF66.063238932203419
aF0.55812542372881435
ag3
(g4
(I0
tS'b'
tRp170
(I1
(I1
tg7
I00
S'\x01\x00\x00\x00'
tbaF0
aa(lp171
F489673
aF75.218044144295334
aF0.55459563758389274
ag3
(g4
(I0
tS'b'
tRp172
(I1
(I0
tg7
I00
S''
tbaF0
aa(lp173
F475992
aF136.77666739270376
aF0.27911158798283209
ag3
(g4
(I0
tS'b'
tRp174
(I1
(I0
tg7
I00
S''
tbaF0
aa(lp175
F495041
aF110.38842785454536
aF0.63318424242424221
ag3
(g4
(I0
tS'b'
tRp176
(I1
(I0
tg7
I00
S''
tbaF1961
aa(lp177
F225610
aF220.33163915178582
aF0.070217261904761977
ag3
(g4
(I0
tS'b'
tRp178
(I1
(I0
tg7
I00
S''
tbaF0
aa.