(dp1
I0
cnumpy.core.multiarray
scalar
p2
(cnumpy
dtype
p3
(S'S18'
I0
I1
tRp4
(I3
S'|'
NNNI18
I1
I0
tbS'SOMZWCG12A8C13C480'
tRp5
sI1
g2
(g3
(S'S18'
I0
I1
tRp6
(I3
S'|'
NNNI18
I1
I0
tbS'SOCIWDW12A8C13D406'
tRp7
sI2
g2
(g3
(S'S18'
I0
I1
tRp8
(I3
S'|'
NNNI18
I1
I0
tbS'SOXVLOJ12AB0189215'
tRp9
sI3
g2
(g3
(S'S18'
I0
I1
tRp10
(I3
S'|'
NNNI18
I1
I0
tbS'SONHOTT12A8C13493C'
tRp11
sI4
g2
(g3
(S'S18'
I0
I1
tRp12
(I3
S'|'
NNNI18
I1
I0
tbS'SOFSOCN12A8C143F5D'
tRp13
sI5
g2
(g3
(S'S18'
I0
I1
tRp14
(I3
S'|'
NNNI18
I1
I0
tbS'SOYMRWW12A6D4FAB14'
tRp15
sI6
g2
(g3
(S'S18'
I0
I1
tRp16
(I3
S'|'
NNNI18
I1
I0
tbS'SOMJBYD12A6D4F8557'
tRp17
sI7
g2
(g3
(S'S18'
I0
I1
tRp18
(I3
S'|'
NNNI18
I1
I0
tbS'SOHKNRJ12A6701D1F8'
tRp19
sI8
g2
(g3
(S'S18'
I0
I1
tRp20
(I3
S'|'
NNNI18
I1
I0
tbS'SOIAZJW12AB01853F1'
tRp21
sI9
g2
(g3
(S'S18'
I0
I1
tRp22
(I3
S'|'
NNNI18
I1
I0
tbS'SOUDSGM12AC9618304'
tRp23
sI10
g2
(g3
(S'S18'
I0
I1
tRp24
(I3
S'|'
NNNI18
I1
I0
tbS'SOQHXMF12AB0182363'
tRp25
sI11
g2
(g3
(S'S18'
I0
I1
tRp26
(I3
S'|'
NNNI18
I1
I0
tbS'SOKEJEJ12A8C13E0D0'
tRp27
sI12
g2
(g3
(S'S18'
I0
I1
tRp28
(I3
S'|'
NNNI18
I1
I0
tbS'SOMUYGI12AB0188633'
tRp29
sI13
g2
(g3
(S'S18'
I0
I1
tRp30
(I3
S'|'
NNNI18
I1
I0
tbS'SORAMLE12AB017C8B0'
tRp31
sI14
g2
(g3
(S'S18'
I0
I1
tRp32
(I3
S'|'
NNNI18
I1
I0
tbS'SOBONFF12A6D4F84D8'
tRp33
sI15
g2
(g3
(S'S18'
I0
I1
tRp34
(I3
S'|'
NNNI18
I1
I0
tbS'SOHUOAP12A8AE488E9'
tRp35
sI16
g2
(g3
(S'S18'
I0
I1
tRp36
(I3
S'|'
NNNI18
I1
I0
tbS'SOUQQEA12A8C134B1B'
tRp37
sI17
g2
(g3
(S'S18'
I0
I1
tRp38
(I3
S'|'
NNNI18
I1
I0
tbS'SOILPQQ12AB017E82A'
tRp39
sI18
g2
(g3
(S'S18'
I0
I1
tRp40
(I3
S'|'
NNNI18
I1
I0
tbS'SOXLBJT12A8C140925'
tRp41
sI19
g2
(g3
(S'S18'
I0
I1
tRp42
(I3
S'|'
NNNI18
I1
I0
tbS'SOZVMJI12AB01808AF'
tRp43
sI20
g2
(g3
(S'S18'
I0
I1
tRp44
(I3
S'|'
NNNI18
I1
I0
tbS'SOWTBJW12AC468AC6E'
tRp45
sI21
g2
(g3
(S'S18'
I0
I1
tRp46
(I3
S'|'
NNNI18
I1
I0
tbS'SOBEBDG12A58A76D60'
tRp47
sI22
g2
(g3
(S'S18'
I0
I1
tRp48
(I3
S'|'
NNNI18
I1
I0
tbS'SOZCTXZ12AB0182364'
tRp49
sI23
g2
(g3
(S'S18'
I0
I1
tRp50
(I3
S'|'
NNNI18
I1
I0
tbS'SOBBUGU12A8C13E95D'
tRp51
sI24
g2
(g3
(S'S18'
I0
I1
tRp52
(I3
S'|'
NNNI18
I1
I0
tbS'SOBLGCN12AB0183212'
tRp53
sI25
g2
(g3
(S'S18'
I0
I1
tRp54
(I3
S'|'
NNNI18
I1
I0
tbS'SOPSWQW12A6D4F8781'
tRp55
sI26
g2
(g3
(S'S18'
I0
I1
tRp56
(I3
S'|'
NNNI18
I1
I0
tbS'SOZQDIU12A58A7BCF6'
tRp57
sI27
g2
(g3
(S'S18'
I0
I1
tRp58
(I3
S'|'
NNNI18
I1
I0
tbS'SONYPOM12A8C13B2D7'
tRp59
sI28
g2
(g3
(S'S18'
I0
I1
tRp60
(I3
S'|'
NNNI18
I1
I0
tbS'SOBZBAZ12A6D4F8742'
tRp61
sI29
g2
(g3
(S'S18'
I0
I1
tRp62
(I3
S'|'
NNNI18
I1
I0
tbS'SOVYKGO12AB0187199'
tRp63
sI30
g2
(g3
(S'S18'
I0
I1
tRp64
(I3
S'|'
NNNI18
I1
I0
tbS'SOGNCJP12A58A80271'
tRp65
sI31
g2
(g3
(S'S18'
I0
I1
tRp66
(I3
S'|'
NNNI18
I1
I0
tbS'SOLLHMX12AB01846DC'
tRp67
sI32
g2
(g3
(S'S18'
I0
I1
tRp68
(I3
S'|'
NNNI18
I1
I0
tbS'SOYTPEP12AB0180E7B'
tRp69
sI33
g2
(g3
(S'S18'
I0
I1
tRp70
(I3
S'|'
NNNI18
I1
I0
tbS'SOGXHEG12AB018653E'
tRp71
sI34
g2
(g3
(S'S18'
I0
I1
tRp72
(I3
S'|'
NNNI18
I1
I0
tbS'SOOLYAZ12A6701F4A6'
tRp73
sI35
g2
(g3
(S'S18'
I0
I1
tRp74
(I3
S'|'
NNNI18
I1
I0
tbS'SOGOSOV12AF72A285E'
tRp75
sI36
g2
(g3
(S'S18'
I0
I1
tRp76
(I3
S'|'
NNNI18
I1
I0
tbS'SOJXVAH12A8C139700'
tRp77
sI37
g2
(g3
(S'S18'
I0
I1
tRp78
(I3
S'|'
NNNI18
I1
I0
tbS'SOVXMTN12A8C135A18'
tRp79
sI38
g2
(g3
(S'S18'
I0
I1
tRp80
(I3
S'|'
NNNI18
I1
I0
tbS'SORSECL12AB0182267'
tRp81
sI39
g2
(g3
(S'S18'
I0
I1
tRp82
(I3
S'|'
NNNI18
I1
I0
tbS'SOOGFBZ12AC3DF7FF2'
tRp83
sI40
g2
(g3
(S'S18'
I0
I1
tRp84
(I3
S'|'
NNNI18
I1
I0
tbS'SOMSBGZ12AB018C4CB'
tRp85
sI41
g2
(g3
(S'S18'
I0
I1
tRp86
(I3
S'|'
NNNI18
I1
I0
tbS'SONYRZV12AB018AF70'
tRp87
sI42
g2
(g3
(S'S18'
I0
I1
tRp88
(I3
S'|'
NNNI18
I1
I0
tbS'SONQBUB12A6D4F8ED0'
tRp89
sI43
g2
(g3
(S'S18'
I0
I1
tRp90
(I3
S'|'
NNNI18
I1
I0
tbS'SOHGKJW12AC468A8BD'
tRp91
sI44
g2
(g3
(S'S18'
I0
I1
tRp92
(I3
S'|'
NNNI18
I1
I0
tbS'SOINBCU12A6D4F94C0'
tRp93
sI45
g2
(g3
(S'S18'
I0
I1
tRp94
(I3
S'|'
NNNI18
I1
I0
tbS'SOTWVQT12A58A79650'
tRp95
sI46
g2
(g3
(S'S18'
I0
I1
tRp96
(I3
S'|'
NNNI18
I1
I0
tbS'SOTSEJY12AB0180F56'
tRp97
sI47
g2
(g3
(S'S18'
I0
I1
tRp98
(I3
S'|'
NNNI18
I1
I0
tbS'SOTSETT12AB01863B8'
tRp99
sI48
g2
(g3
(S'S18'
I0
I1
tRp100
(I3
S'|'
NNNI18
I1
I0
tbS'SOTUNMH12A6D4FA3E6'
tRp101
sI49
g2
(g3
(S'S18'
I0
I1
tRp102
(I3
S'|'
NNNI18
I1
I0
tbS'SOEPPKB12AB018418B'
tRp103
sI50
g2
(g3
(S'S18'
I0
I1
tRp104
(I3
S'|'
NNNI18
I1
I0
tbS'SOGKIWV12A6D4F86C4'
tRp105
sI51
g2
(g3
(S'S18'
I0
I1
tRp106
(I3
S'|'
NNNI18
I1
I0
tbS'SOPHYIS12AAF3B35A3'
tRp107
sI52
g2
(g3
(S'S18'
I0
I1
tRp108
(I3
S'|'
NNNI18
I1
I0
tbS'SOFHBAR12A6701D0FE'
tRp109
sI53
g2
(g3
(S'S18'
I0
I1
tRp110
(I3
S'|'
NNNI18
I1
I0
tbS'SOCPRKM12AB018A2FD'
tRp111
sI54
g2
(g3
(S'S18'
I0
I1
tRp112
(I3
S'|'
NNNI18
I1
I0
tbS'SOFGHAM12AB0186412'
tRp113
sI55
g2
(g3
(S'S18'
I0
I1
tRp114
(I3
S'|'
NNNI18
I1
I0
tbS'SODHVES12A6701CE6B'
tRp115
sI56
g2
(g3
(S'S18'
I0
I1
tRp116
(I3
S'|'
NNNI18
I1
I0
tbS'SOXIATP12AAF3B2184'
tRp117
sI57
g2
(g3
(S'S18'
I0
I1
tRp118
(I3
S'|'
NNNI18
I1
I0
tbS'SOGNQWU12A8AE4868F'
tRp119
sI58
g2
(g3
(S'S18'
I0
I1
tRp120
(I3
S'|'
NNNI18
I1
I0
tbS'SOYQOFI12A6D4F76E1'
tRp121
sI59
g2
(g3
(S'S18'
I0
I1
tRp122
(I3
S'|'
NNNI18
I1
I0
tbS'SOVOLGY12A6D4F822B'
tRp123
sI60
g2
(g3
(S'S18'
I0
I1
tRp124
(I3
S'|'
NNNI18
I1
I0
tbS'SOMZCVH12AB0182B8E'
tRp125
sI61
g2
(g3
(S'S18'
I0
I1
tRp126
(I3
S'|'
NNNI18
I1
I0
tbS'SONXJBL12AAF3B2C0C'
tRp127
sI62
g2
(g3
(S'S18'
I0
I1
tRp128
(I3
S'|'
NNNI18
I1
I0
tbS'SOYWZTU12AB0180E26'
tRp129
sI63
g2
(g3
(S'S18'
I0
I1
tRp130
(I3
S'|'
NNNI18
I1
I0
tbS'SOLGHDZ12AB0183B11'
tRp131
sI64
g2
(g3
(S'S18'
I0
I1
tRp132
(I3
S'|'
NNNI18
I1
I0
tbS'SOTNTNJ12AAA15FBD6'
tRp133
sI65
g2
(g3
(S'S18'
I0
I1
tRp134
(I3
S'|'
NNNI18
I1
I0
tbS'SOXZXXV12AAF3B3A67'
tRp135
sI66
g2
(g3
(S'S18'
I0
I1
tRp136
(I3
S'|'
NNNI18
I1
I0
tbS'SOPIKEG12A58291636'
tRp137
sI67
g2
(g3
(S'S18'
I0
I1
tRp138
(I3
S'|'
NNNI18
I1
I0
tbS'SOIRNBO12AC468D207'
tRp139
sI68
g2
(g3
(S'S18'
I0
I1
tRp140
(I3
S'|'
NNNI18
I1
I0
tbS'SOSBDSF12AB0189007'
tRp141
sI69
g2
(g3
(S'S18'
I0
I1
tRp142
(I3
S'|'
NNNI18
I1
I0
tbS'SOIJXXM12A8C1416D6'
tRp143
sI70
g2
(g3
(S'S18'
I0
I1
tRp144
(I3
S'|'
NNNI18
I1
I0
tbS'SOHMMMC12AB0181C42'
tRp145
sI71
g2
(g3
(S'S18'
I0
I1
tRp146
(I3
S'|'
NNNI18
I1
I0
tbS'SOVJXVJ12A8C13517D'
tRp147
sI72
g2
(g3
(S'S18'
I0
I1
tRp148
(I3
S'|'
NNNI18
I1
I0
tbS'SOFZCTA12AB0188D8F'
tRp149
sI73
g2
(g3
(S'S18'
I0
I1
tRp150
(I3
S'|'
NNNI18
I1
I0
tbS'SOLRYQR12A670215BF'
tRp151
sI74
g2
(g3
(S'S18'
I0
I1
tRp152
(I3
S'|'
NNNI18
I1
I0
tbS'SOCHRXB12A8AE48069'
tRp153
sI75
g2
(g3
(S'S18'
I0
I1
tRp154
(I3
S'|'
NNNI18
I1
I0
tbS'SOKBBXO12A6701DEA0'
tRp155
sI76
g2
(g3
(S'S18'
I0
I1
tRp156
(I3
S'|'
NNNI18
I1
I0
tbS'SOWHYUG12A58A77FAB'
tRp157
sI77
g2
(g3
(S'S18'
I0
I1
tRp158
(I3
S'|'
NNNI18
I1
I0
tbS'SOYSTDI12A6D4F6500'
tRp159
sI78
g2
(g3
(S'S18'
I0
I1
tRp160
(I3
S'|'
NNNI18
I1
I0
tbS'SOOOROX12A6D4F8400'
tRp161
sI79
g2
(g3
(S'S18'
I0
I1
tRp162
(I3
S'|'
NNNI18
I1
I0
tbS'SONSPZE12AB01819CE'
tRp163
sI80
g2
(g3
(S'S18'
I0
I1
tRp164
(I3
S'|'
NNNI18
I1
I0
tbS'SOHWGFU12AB017B036'
tRp165
sI81
g2
(g3
(S'S18'
I0
I1
tRp166
(I3
S'|'
NNNI18
I1
I0
tbS'SOQQVQJ12AB0185192'
tRp167
sI82
g2
(g3
(S'S18'
I0
I1
tRp168
(I3
S'|'
NNNI18
I1
I0
tbS'SODRHHD12AB0189F2A'
tRp169
sI83
g2
(g3
(S'S18'
I0
I1
tRp170
(I3
S'|'
NNNI18
I1
I0
tbS'SOQGFVO12A8C13C8C3'
tRp171
sI84
g2
(g3
(S'S18'
I0
I1
tRp172
(I3
S'|'
NNNI18
I1
I0
tbS'SORABMD12A8C136672'
tRp173
sI85
g2
(g3
(S'S18'
I0
I1
tRp174
(I3
S'|'
NNNI18
I1
I0
tbS'SOTUBVH12AB018D2EC'
tRp175
sI86
g2
(g3
(S'S18'
I0
I1
tRp176
(I3
S'|'
NNNI18
I1
I0
tbS'SOMQAGT12A8C132DB4'
tRp177
sI87
g2
(g3
(S'S18'
I0
I1
tRp178
(I3
S'|'
NNNI18
I1
I0
tbS'SOKLLOH12A67020F2C'
tRp179
sI88
g2
(g3
(S'S18'
I0
I1
tRp180
(I3
S'|'
NNNI18
I1
I0
tbS'SONRLQH12AB017C232'
tRp181
sI89
g2
(g3
(S'S18'
I0
I1
tRp182
(I3
S'|'
NNNI18
I1
I0
tbS'SODDZAD12A6701DC4C'
tRp183
sI90
g2
(g3
(S'S18'
I0
I1
tRp184
(I3
S'|'
NNNI18
I1
I0
tbS'SORENXV12A6701F61F'
tRp185
sI91
g2
(g3
(S'S18'
I0
I1
tRp186
(I3
S'|'
NNNI18
I1
I0
tbS'SOYMMDY12AB01825B2'
tRp187
sI92
g2
(g3
(S'S18'
I0
I1
tRp188
(I3
S'|'
NNNI18
I1
I0
tbS'SOJWQIP12A6D4F710A'
tRp189
sI93
g2
(g3
(S'S18'
I0
I1
tRp190
(I3
S'|'
NNNI18
I1
I0
tbS'SOOVOKS12AB017EE57'
tRp191
sI94
g2
(g3
(S'S18'
I0
I1
tRp192
(I3
S'|'
NNNI18
I1
I0
tbS'SORWHWY12A6702038E'
tRp193
sI95
g2
(g3
(S'S18'
I0
I1
tRp194
(I3
S'|'
NNNI18
I1
I0
tbS'SOGYYLE12A8C13E5EA'
tRp195
sI96
g2
(g3
(S'S18'
I0
I1
tRp196
(I3
S'|'
NNNI18
I1
I0
tbS'SOITUXQ12AB0183AE9'
tRp197
sI97
g2
(g3
(S'S18'
I0
I1
tRp198
(I3
S'|'
NNNI18
I1
I0
tbS'SOTWEZZ12A8C142B60'
tRp199
sI98
g2
(g3
(S'S18'
I0
I1
tRp200
(I3
S'|'
NNNI18
I1
I0
tbS'SOUVRGZ12A58A77F90'
tRp201
sI99
g2
(g3
(S'S18'
I0
I1
tRp202
(I3
S'|'
NNNI18
I1
I0
tbS'SOBLTSM12A6D4F9EEA'
tRp203
s.